

Microchip MPLAB XC8 Assembler V2.41 build 20230208172133 
                                                                                               Mon Jan 15 21:58:20 2024

Microchip MPLAB XC8 C Compiler v2.41 (Free license) build 20230208172133 Og1 
     1                           	processor	16F18076
     2                           	pagewidth 120
     3                           	opt	flic
     4                           	psect	idataBANK0,global,class=CODE,delta=2,noexec
     5                           	psect	stringtext1,global,class=STRCODE,delta=2,noexec
     6                           	psect	cinit,global,class=CODE,merge=1,delta=2
     7                           	psect	bssCOMMON,global,class=COMMON,space=1,delta=1,noexec
     8                           	psect	bssBANK0,global,class=BANK0,space=1,delta=1,noexec
     9                           	psect	dataBANK0,global,class=BANK0,space=1,delta=1,noexec
    10                           	psect	inittext,global,class=CODE,delta=2
    11                           	psect	cstackCOMMON,global,class=COMMON,space=1,delta=1,noexec
    12                           	psect	cstackBANK0,global,class=BANK0,space=1,delta=1,noexec
    13                           	psect	maintext,global,class=CODE,merge=1,split=1,delta=2
    14                           	psect	text1,local,class=CODE,merge=1,delta=2,group=2
    15                           	psect	text2,local,class=CODE,merge=1,delta=2
    16                           	psect	text3,local,class=CODE,merge=1,delta=2
    17                           	psect	text4,local,class=CODE,merge=1,delta=2
    18                           	psect	text5,local,class=CODE,merge=1,delta=2
    19                           	psect	text6,local,class=CODE,merge=1,delta=2
    20                           	psect	text7,local,class=CODE,merge=1,delta=2
    21                           	psect	text8,local,class=CODE,merge=1,delta=2
    22                           	psect	text9,local,class=CODE,merge=1,delta=2
    23                           	psect	text10,local,class=CODE,merge=1,delta=2
    24                           	psect	text11,local,class=CODE,merge=1,inline,delta=2
    25                           	psect	text12,local,class=CODE,merge=1,inline,delta=2
    26                           	psect	text13,local,class=CODE,merge=1,delta=2
    27                           	psect	text14,local,class=CODE,merge=1,delta=2
    28                           	psect	text15,local,class=CODE,merge=1,delta=2
    29                           	psect	text16,local,class=CODE,merge=1,delta=2
    30                           	psect	text17,local,class=CODE,merge=1,inline,delta=2
    31                           	psect	intentry,global,class=CODE,delta=2
    32                           	psect	text19,local,class=CODE,merge=1,delta=2
    33                           	psect	config,global,abs,ovrld,class=CONFIG,space=4,delta=2,noexec
    34                           	dabs	1,0x7E,2
    35     0000                     
    36                           ; Generated 22/03/2023 GMT
    37                           ; 
    38                           ; Copyright © 2023, Microchip Technology Inc. and its subsidiaries ("Microchip")
    39                           ; All rights reserved.
    40                           ; 
    41                           ; This software is developed by Microchip Technology Inc. and its subsidiaries ("Microch
      +                          ip").
    42                           ; 
    43                           ; Redistribution and use in source and binary forms, with or without modification, are
    44                           ; permitted provided that the following conditions are met:
    45                           ; 
    46                           ;     1. Redistributions of source code must retain the above copyright notice, this lis
      +                          t of
    47                           ;        conditions and the following disclaimer.
    48                           ; 
    49                           ;     2. Redistributions in binary form must reproduce the above copyright notice, this 
      +                          list
    50                           ;        of conditions and the following disclaimer in the documentation and/or other
    51                           ;        materials provided with the distribution. Publication is not required when
    52                           ;        this file is used in an embedded application.
    53                           ; 
    54                           ;     3. Microchip's name may not be used to endorse or promote products derived from th
      +                          is
    55                           ;        software without specific prior written permission.
    56                           ; 
    57                           ; THIS SOFTWARE IS PROVIDED BY MICROCHIP "AS IS" AND ANY EXPRESS OR IMPLIED WARRANTIES,
    58                           ; INCLUDING, BUT NOT LIMITED TO, THE IMPLIED WARRANTIES OF MERCHANTABILITY AND FITNESS F
      +                          OR
    59                           ; PURPOSE ARE DISCLAIMED.  IN NO EVENT SHALL MICROCHIP BE LIABLE FOR ANY DIRECT, INDIREC
      +                          T,
    60                           ; INCIDENTAL, SPECIAL, EXEMPLARY, OR CONSEQUENTIAL DAMAGES (INCLUDING BUT NOT LIMITED TO
    61                           ; PROCUREMENT OF SUBSTITUTE GOODS OR SERVICES; LOSS OF USE, DATA OR PROFITS; OR BUSINESS
    62                           ; INTERRUPTION) HOWSOEVER CAUSED AND ON ANY THEORY OF LIABILITY, WHETHER IN CONTRACT, ST
      +                          RICT
    63                           ; LIABILITY, OR TORT (INCLUDING NEGLIGENCE OR OTHERWISE) ARISING IN ANY WAY OUT OF THE U
      +                          SE OF
    64                           ; THIS SOFTWARE, EVEN IF ADVISED OF THE POSSIBILITY OF SUCH DAMAGE.
    65                           ; 
    66                           ; 
    67                           ; Code-generator required, PIC16F18076 Definitions
    68                           ; 
    69                           ; SFR Addresses
    70     0000                     	;# 
    71     0001                     	;# 
    72     0002                     	;# 
    73     0003                     	;# 
    74     0004                     	;# 
    75     0005                     	;# 
    76     0006                     	;# 
    77     0007                     	;# 
    78     0008                     	;# 
    79     0009                     	;# 
    80     000A                     	;# 
    81     000B                     	;# 
    82     000C                     	;# 
    83     000D                     	;# 
    84     000E                     	;# 
    85     000F                     	;# 
    86     0010                     	;# 
    87     0012                     	;# 
    88     0013                     	;# 
    89     0014                     	;# 
    90     0015                     	;# 
    91     0016                     	;# 
    92     0018                     	;# 
    93     0019                     	;# 
    94     001A                     	;# 
    95     001B                     	;# 
    96     001C                     	;# 
    97     008C                     	;# 
    98     008D                     	;# 
    99     008E                     	;# 
   100     008F                     	;# 
   101     0090                     	;# 
   102     0096                     	;# 
   103     0097                     	;# 
   104     0098                     	;# 
   105     0099                     	;# 
   106     009A                     	;# 
   107     018C                     	;# 
   108     018D                     	;# 
   109     018E                     	;# 
   110     018F                     	;# 
   111     019C                     	;# 
   112     019C                     	;# 
   113     019D                     	;# 
   114     019D                     	;# 
   115     019E                     	;# 
   116     019F                     	;# 
   117     020E                     	;# 
   118     020F                     	;# 
   119     0210                     	;# 
   120     0211                     	;# 
   121     0212                     	;# 
   122     0213                     	;# 
   123     0214                     	;# 
   124     028C                     	;# 
   125     028C                     	;# 
   126     028D                     	;# 
   127     028E                     	;# 
   128     028F                     	;# 
   129     028F                     	;# 
   130     0290                     	;# 
   131     0290                     	;# 
   132     0291                     	;# 
   133     0291                     	;# 
   134     0292                     	;# 
   135     0292                     	;# 
   136     0293                     	;# 
   137     0294                     	;# 
   138     0295                     	;# 
   139     0295                     	;# 
   140     0296                     	;# 
   141     0296                     	;# 
   142     0297                     	;# 
   143     0297                     	;# 
   144     030C                     	;# 
   145     030C                     	;# 
   146     030D                     	;# 
   147     030D                     	;# 
   148     030E                     	;# 
   149     030F                     	;# 
   150     0310                     	;# 
   151     0310                     	;# 
   152     0311                     	;# 
   153     0312                     	;# 
   154     0312                     	;# 
   155     0313                     	;# 
   156     0313                     	;# 
   157     0314                     	;# 
   158     0315                     	;# 
   159     0316                     	;# 
   160     0316                     	;# 
   161     0317                     	;# 
   162     0318                     	;# 
   163     0318                     	;# 
   164     0319                     	;# 
   165     0319                     	;# 
   166     031A                     	;# 
   167     031B                     	;# 
   168     031C                     	;# 
   169     031C                     	;# 
   170     031D                     	;# 
   171     038C                     	;# 
   172     038C                     	;# 
   173     038D                     	;# 
   174     038E                     	;# 
   175     038F                     	;# 
   176     0390                     	;# 
   177     0390                     	;# 
   178     0391                     	;# 
   179     0392                     	;# 
   180     0393                     	;# 
   181     039F                     	;# 
   182     040C                     	;# 
   183     040C                     	;# 
   184     040D                     	;# 
   185     040E                     	;# 
   186     040F                     	;# 
   187     040F                     	;# 
   188     0410                     	;# 
   189     0411                     	;# 
   190     0412                     	;# 
   191     0412                     	;# 
   192     0413                     	;# 
   193     0414                     	;# 
   194     041F                     	;# 
   195     048C                     	;# 
   196     048C                     	;# 
   197     048D                     	;# 
   198     048E                     	;# 
   199     048F                     	;# 
   200     048F                     	;# 
   201     0490                     	;# 
   202     0491                     	;# 
   203     0492                     	;# 
   204     0493                     	;# 
   205     050C                     	;# 
   206     050C                     	;# 
   207     050D                     	;# 
   208     050D                     	;# 
   209     050E                     	;# 
   210     050F                     	;# 
   211     0510                     	;# 
   212     0511                     	;# 
   213     0512                     	;# 
   214     0513                     	;# 
   215     0514                     	;# 
   216     058C                     	;# 
   217     058D                     	;# 
   218     058E                     	;# 
   219     058F                     	;# 
   220     0590                     	;# 
   221     0591                     	;# 
   222     0592                     	;# 
   223     0593                     	;# 
   224     0594                     	;# 
   225     0595                     	;# 
   226     0596                     	;# 
   227     0597                     	;# 
   228     060C                     	;# 
   229     060D                     	;# 
   230     060E                     	;# 
   231     060E                     	;# 
   232     060F                     	;# 
   233     0610                     	;# 
   234     0611                     	;# 
   235     0612                     	;# 
   236     0616                     	;# 
   237     0617                     	;# 
   238     0618                     	;# 
   239     0618                     	;# 
   240     0619                     	;# 
   241     061A                     	;# 
   242     061B                     	;# 
   243     061C                     	;# 
   244     068C                     	;# 
   245     068D                     	;# 
   246     068E                     	;# 
   247     068F                     	;# 
   248     0690                     	;# 
   249     0691                     	;# 
   250     0692                     	;# 
   251     0696                     	;# 
   252     0697                     	;# 
   253     0698                     	;# 
   254     0699                     	;# 
   255     069A                     	;# 
   256     069B                     	;# 
   257     069C                     	;# 
   258     100C                     	;# 
   259     100D                     	;# 
   260     101F                     	;# 
   261     108C                     	;# 
   262     108D                     	;# 
   263     108E                     	;# 
   264     108F                     	;# 
   265     109F                     	;# 
   266     109F                     	;# 
   267     110C                     	;# 
   268     110D                     	;# 
   269     1C8C                     	;# 
   270     1C8C                     	;# 
   271     1C8D                     	;# 
   272     1C8E                     	;# 
   273     1C8E                     	;# 
   274     1C8F                     	;# 
   275     1C90                     	;# 
   276     1C91                     	;# 
   277     1D0C                     	;# 
   278     1D0C                     	;# 
   279     1D0D                     	;# 
   280     1D0E                     	;# 
   281     1D0E                     	;# 
   282     1D0F                     	;# 
   283     1D10                     	;# 
   284     1D10                     	;# 
   285     1D11                     	;# 
   286     1D12                     	;# 
   287     1D12                     	;# 
   288     1D13                     	;# 
   289     1D14                     	;# 
   290     1D14                     	;# 
   291     1D15                     	;# 
   292     1D16                     	;# 
   293     1D16                     	;# 
   294     1D17                     	;# 
   295     1D18                     	;# 
   296     1D19                     	;# 
   297     1D1A                     	;# 
   298     1D1B                     	;# 
   299     1D1B                     	;# 
   300     1D1C                     	;# 
   301     1D1D                     	;# 
   302     1D1D                     	;# 
   303     1D1E                     	;# 
   304     1D1F                     	;# 
   305     1D21                     	;# 
   306     1D21                     	;# 
   307     1D22                     	;# 
   308     1D23                     	;# 
   309     1D24                     	;# 
   310     1D24                     	;# 
   311     1D25                     	;# 
   312     1D26                     	;# 
   313     1D27                     	;# 
   314     1D28                     	;# 
   315     1D29                     	;# 
   316     1D2A                     	;# 
   317     1D2B                     	;# 
   318     1D2C                     	;# 
   319     1D2D                     	;# 
   320     1D2E                     	;# 
   321     1D2F                     	;# 
   322     1D30                     	;# 
   323     1D31                     	;# 
   324     1D32                     	;# 
   325     1D8C                     	;# 
   326     1D8D                     	;# 
   327     1D8E                     	;# 
   328     1D8F                     	;# 
   329     1D90                     	;# 
   330     1D91                     	;# 
   331     1D92                     	;# 
   332     1D93                     	;# 
   333     1D94                     	;# 
   334     1D95                     	;# 
   335     1D96                     	;# 
   336     1D97                     	;# 
   337     1D98                     	;# 
   338     1D99                     	;# 
   339     1D9A                     	;# 
   340     1D9B                     	;# 
   341     1D9C                     	;# 
   342     1D9D                     	;# 
   343     1D9E                     	;# 
   344     1D9F                     	;# 
   345     1DA0                     	;# 
   346     1DA1                     	;# 
   347     1DA2                     	;# 
   348     1DA3                     	;# 
   349     1DA4                     	;# 
   350     1DA5                     	;# 
   351     1DA6                     	;# 
   352     1DA7                     	;# 
   353     1DA8                     	;# 
   354     1DA9                     	;# 
   355     1DAA                     	;# 
   356     1DAB                     	;# 
   357     1DAC                     	;# 
   358     1DAD                     	;# 
   359     1DAE                     	;# 
   360     1E0C                     	;# 
   361     1E0D                     	;# 
   362     1E0E                     	;# 
   363     1E0F                     	;# 
   364     1E10                     	;# 
   365     1E11                     	;# 
   366     1E12                     	;# 
   367     1E19                     	;# 
   368     1E1A                     	;# 
   369     1E1B                     	;# 
   370     1E1E                     	;# 
   371     1E1F                     	;# 
   372     1E39                     	;# 
   373     1E3D                     	;# 
   374     1E3E                     	;# 
   375     1E3F                     	;# 
   376     1E40                     	;# 
   377     1E41                     	;# 
   378     1E41                     	;# 
   379     1E42                     	;# 
   380     1E42                     	;# 
   381     1E43                     	;# 
   382     1E43                     	;# 
   383     1E44                     	;# 
   384     1E44                     	;# 
   385     1E47                     	;# 
   386     1E48                     	;# 
   387     1E49                     	;# 
   388     1E4A                     	;# 
   389     1E4B                     	;# 
   390     1E4C                     	;# 
   391     1E50                     	;# 
   392     1E8C                     	;# 
   393     1E8D                     	;# 
   394     1E8E                     	;# 
   395     1E8F                     	;# 
   396     1E90                     	;# 
   397     1E91                     	;# 
   398     1E92                     	;# 
   399     1E93                     	;# 
   400     1E96                     	;# 
   401     1E97                     	;# 
   402     1E98                     	;# 
   403     1E99                     	;# 
   404     1E9A                     	;# 
   405     1E9B                     	;# 
   406     1E9C                     	;# 
   407     1E9D                     	;# 
   408     1EA0                     	;# 
   409     1EA1                     	;# 
   410     1EA2                     	;# 
   411     1EA3                     	;# 
   412     1EA4                     	;# 
   413     1EA5                     	;# 
   414     1EA6                     	;# 
   415     1EA7                     	;# 
   416     1EAA                     	;# 
   417     1EAB                     	;# 
   418     1EAC                     	;# 
   419     1EAD                     	;# 
   420     1EAE                     	;# 
   421     1EB4                     	;# 
   422     1EB5                     	;# 
   423     1EB6                     	;# 
   424     1EB7                     	;# 
   425     1EB8                     	;# 
   426     1EB9                     	;# 
   427     1EBA                     	;# 
   428     1EBB                     	;# 
   429     1EE3                     	;# 
   430     1EE4                     	;# 
   431     1EEB                     	;# 
   432     1EEC                     	;# 
   433     1EEE                     	;# 
   434     1EEF                     	;# 
   435     1F0C                     	;# 
   436     1F0D                     	;# 
   437     1F0E                     	;# 
   438     1FE4                     	;# 
   439     1FE5                     	;# 
   440     1FE6                     	;# 
   441     1FE7                     	;# 
   442     1FE8                     	;# 
   443     1FE8                     	;# 
   444     1FE9                     	;# 
   445     1FEA                     	;# 
   446     1FEA                     	;# 
   447     1FEB                     	;# 
   448     1FED                     	;# 
   449     1FEE                     	;# 
   450     1FEF                     	;# 
   451     0000                     	;# 
   452     0001                     	;# 
   453     0002                     	;# 
   454     0003                     	;# 
   455     0004                     	;# 
   456     0005                     	;# 
   457     0006                     	;# 
   458     0007                     	;# 
   459     0008                     	;# 
   460     0009                     	;# 
   461     000A                     	;# 
   462     000B                     	;# 
   463     000C                     	;# 
   464     000D                     	;# 
   465     000E                     	;# 
   466     000F                     	;# 
   467     0010                     	;# 
   468     0012                     	;# 
   469     0013                     	;# 
   470     0014                     	;# 
   471     0015                     	;# 
   472     0016                     	;# 
   473     0018                     	;# 
   474     0019                     	;# 
   475     001A                     	;# 
   476     001B                     	;# 
   477     001C                     	;# 
   478     008C                     	;# 
   479     008D                     	;# 
   480     008E                     	;# 
   481     008F                     	;# 
   482     0090                     	;# 
   483     0096                     	;# 
   484     0097                     	;# 
   485     0098                     	;# 
   486     0099                     	;# 
   487     009A                     	;# 
   488     018C                     	;# 
   489     018D                     	;# 
   490     018E                     	;# 
   491     018F                     	;# 
   492     019C                     	;# 
   493     019C                     	;# 
   494     019D                     	;# 
   495     019D                     	;# 
   496     019E                     	;# 
   497     019F                     	;# 
   498     020E                     	;# 
   499     020F                     	;# 
   500     0210                     	;# 
   501     0211                     	;# 
   502     0212                     	;# 
   503     0213                     	;# 
   504     0214                     	;# 
   505     028C                     	;# 
   506     028C                     	;# 
   507     028D                     	;# 
   508     028E                     	;# 
   509     028F                     	;# 
   510     028F                     	;# 
   511     0290                     	;# 
   512     0290                     	;# 
   513     0291                     	;# 
   514     0291                     	;# 
   515     0292                     	;# 
   516     0292                     	;# 
   517     0293                     	;# 
   518     0294                     	;# 
   519     0295                     	;# 
   520     0295                     	;# 
   521     0296                     	;# 
   522     0296                     	;# 
   523     0297                     	;# 
   524     0297                     	;# 
   525     030C                     	;# 
   526     030C                     	;# 
   527     030D                     	;# 
   528     030D                     	;# 
   529     030E                     	;# 
   530     030F                     	;# 
   531     0310                     	;# 
   532     0310                     	;# 
   533     0311                     	;# 
   534     0312                     	;# 
   535     0312                     	;# 
   536     0313                     	;# 
   537     0313                     	;# 
   538     0314                     	;# 
   539     0315                     	;# 
   540     0316                     	;# 
   541     0316                     	;# 
   542     0317                     	;# 
   543     0318                     	;# 
   544     0318                     	;# 
   545     0319                     	;# 
   546     0319                     	;# 
   547     031A                     	;# 
   548     031B                     	;# 
   549     031C                     	;# 
   550     031C                     	;# 
   551     031D                     	;# 
   552     038C                     	;# 
   553     038C                     	;# 
   554     038D                     	;# 
   555     038E                     	;# 
   556     038F                     	;# 
   557     0390                     	;# 
   558     0390                     	;# 
   559     0391                     	;# 
   560     0392                     	;# 
   561     0393                     	;# 
   562     039F                     	;# 
   563     040C                     	;# 
   564     040C                     	;# 
   565     040D                     	;# 
   566     040E                     	;# 
   567     040F                     	;# 
   568     040F                     	;# 
   569     0410                     	;# 
   570     0411                     	;# 
   571     0412                     	;# 
   572     0412                     	;# 
   573     0413                     	;# 
   574     0414                     	;# 
   575     041F                     	;# 
   576     048C                     	;# 
   577     048C                     	;# 
   578     048D                     	;# 
   579     048E                     	;# 
   580     048F                     	;# 
   581     048F                     	;# 
   582     0490                     	;# 
   583     0491                     	;# 
   584     0492                     	;# 
   585     0493                     	;# 
   586     050C                     	;# 
   587     050C                     	;# 
   588     050D                     	;# 
   589     050D                     	;# 
   590     050E                     	;# 
   591     050F                     	;# 
   592     0510                     	;# 
   593     0511                     	;# 
   594     0512                     	;# 
   595     0513                     	;# 
   596     0514                     	;# 
   597     058C                     	;# 
   598     058D                     	;# 
   599     058E                     	;# 
   600     058F                     	;# 
   601     0590                     	;# 
   602     0591                     	;# 
   603     0592                     	;# 
   604     0593                     	;# 
   605     0594                     	;# 
   606     0595                     	;# 
   607     0596                     	;# 
   608     0597                     	;# 
   609     060C                     	;# 
   610     060D                     	;# 
   611     060E                     	;# 
   612     060E                     	;# 
   613     060F                     	;# 
   614     0610                     	;# 
   615     0611                     	;# 
   616     0612                     	;# 
   617     0616                     	;# 
   618     0617                     	;# 
   619     0618                     	;# 
   620     0618                     	;# 
   621     0619                     	;# 
   622     061A                     	;# 
   623     061B                     	;# 
   624     061C                     	;# 
   625     068C                     	;# 
   626     068D                     	;# 
   627     068E                     	;# 
   628     068F                     	;# 
   629     0690                     	;# 
   630     0691                     	;# 
   631     0692                     	;# 
   632     0696                     	;# 
   633     0697                     	;# 
   634     0698                     	;# 
   635     0699                     	;# 
   636     069A                     	;# 
   637     069B                     	;# 
   638     069C                     	;# 
   639     100C                     	;# 
   640     100D                     	;# 
   641     101F                     	;# 
   642     108C                     	;# 
   643     108D                     	;# 
   644     108E                     	;# 
   645     108F                     	;# 
   646     109F                     	;# 
   647     109F                     	;# 
   648     110C                     	;# 
   649     110D                     	;# 
   650     1C8C                     	;# 
   651     1C8C                     	;# 
   652     1C8D                     	;# 
   653     1C8E                     	;# 
   654     1C8E                     	;# 
   655     1C8F                     	;# 
   656     1C90                     	;# 
   657     1C91                     	;# 
   658     1D0C                     	;# 
   659     1D0C                     	;# 
   660     1D0D                     	;# 
   661     1D0E                     	;# 
   662     1D0E                     	;# 
   663     1D0F                     	;# 
   664     1D10                     	;# 
   665     1D10                     	;# 
   666     1D11                     	;# 
   667     1D12                     	;# 
   668     1D12                     	;# 
   669     1D13                     	;# 
   670     1D14                     	;# 
   671     1D14                     	;# 
   672     1D15                     	;# 
   673     1D16                     	;# 
   674     1D16                     	;# 
   675     1D17                     	;# 
   676     1D18                     	;# 
   677     1D19                     	;# 
   678     1D1A                     	;# 
   679     1D1B                     	;# 
   680     1D1B                     	;# 
   681     1D1C                     	;# 
   682     1D1D                     	;# 
   683     1D1D                     	;# 
   684     1D1E                     	;# 
   685     1D1F                     	;# 
   686     1D21                     	;# 
   687     1D21                     	;# 
   688     1D22                     	;# 
   689     1D23                     	;# 
   690     1D24                     	;# 
   691     1D24                     	;# 
   692     1D25                     	;# 
   693     1D26                     	;# 
   694     1D27                     	;# 
   695     1D28                     	;# 
   696     1D29                     	;# 
   697     1D2A                     	;# 
   698     1D2B                     	;# 
   699     1D2C                     	;# 
   700     1D2D                     	;# 
   701     1D2E                     	;# 
   702     1D2F                     	;# 
   703     1D30                     	;# 
   704     1D31                     	;# 
   705     1D32                     	;# 
   706     1D8C                     	;# 
   707     1D8D                     	;# 
   708     1D8E                     	;# 
   709     1D8F                     	;# 
   710     1D90                     	;# 
   711     1D91                     	;# 
   712     1D92                     	;# 
   713     1D93                     	;# 
   714     1D94                     	;# 
   715     1D95                     	;# 
   716     1D96                     	;# 
   717     1D97                     	;# 
   718     1D98                     	;# 
   719     1D99                     	;# 
   720     1D9A                     	;# 
   721     1D9B                     	;# 
   722     1D9C                     	;# 
   723     1D9D                     	;# 
   724     1D9E                     	;# 
   725     1D9F                     	;# 
   726     1DA0                     	;# 
   727     1DA1                     	;# 
   728     1DA2                     	;# 
   729     1DA3                     	;# 
   730     1DA4                     	;# 
   731     1DA5                     	;# 
   732     1DA6                     	;# 
   733     1DA7                     	;# 
   734     1DA8                     	;# 
   735     1DA9                     	;# 
   736     1DAA                     	;# 
   737     1DAB                     	;# 
   738     1DAC                     	;# 
   739     1DAD                     	;# 
   740     1DAE                     	;# 
   741     1E0C                     	;# 
   742     1E0D                     	;# 
   743     1E0E                     	;# 
   744     1E0F                     	;# 
   745     1E10                     	;# 
   746     1E11                     	;# 
   747     1E12                     	;# 
   748     1E19                     	;# 
   749     1E1A                     	;# 
   750     1E1B                     	;# 
   751     1E1E                     	;# 
   752     1E1F                     	;# 
   753     1E39                     	;# 
   754     1E3D                     	;# 
   755     1E3E                     	;# 
   756     1E3F                     	;# 
   757     1E40                     	;# 
   758     1E41                     	;# 
   759     1E41                     	;# 
   760     1E42                     	;# 
   761     1E42                     	;# 
   762     1E43                     	;# 
   763     1E43                     	;# 
   764     1E44                     	;# 
   765     1E44                     	;# 
   766     1E47                     	;# 
   767     1E48                     	;# 
   768     1E49                     	;# 
   769     1E4A                     	;# 
   770     1E4B                     	;# 
   771     1E4C                     	;# 
   772     1E50                     	;# 
   773     1E8C                     	;# 
   774     1E8D                     	;# 
   775     1E8E                     	;# 
   776     1E8F                     	;# 
   777     1E90                     	;# 
   778     1E91                     	;# 
   779     1E92                     	;# 
   780     1E93                     	;# 
   781     1E96                     	;# 
   782     1E97                     	;# 
   783     1E98                     	;# 
   784     1E99                     	;# 
   785     1E9A                     	;# 
   786     1E9B                     	;# 
   787     1E9C                     	;# 
   788     1E9D                     	;# 
   789     1EA0                     	;# 
   790     1EA1                     	;# 
   791     1EA2                     	;# 
   792     1EA3                     	;# 
   793     1EA4                     	;# 
   794     1EA5                     	;# 
   795     1EA6                     	;# 
   796     1EA7                     	;# 
   797     1EAA                     	;# 
   798     1EAB                     	;# 
   799     1EAC                     	;# 
   800     1EAD                     	;# 
   801     1EAE                     	;# 
   802     1EB4                     	;# 
   803     1EB5                     	;# 
   804     1EB6                     	;# 
   805     1EB7                     	;# 
   806     1EB8                     	;# 
   807     1EB9                     	;# 
   808     1EBA                     	;# 
   809     1EBB                     	;# 
   810     1EE3                     	;# 
   811     1EE4                     	;# 
   812     1EEB                     	;# 
   813     1EEC                     	;# 
   814     1EEE                     	;# 
   815     1EEF                     	;# 
   816     1F0C                     	;# 
   817     1F0D                     	;# 
   818     1F0E                     	;# 
   819     1FE4                     	;# 
   820     1FE5                     	;# 
   821     1FE6                     	;# 
   822     1FE7                     	;# 
   823     1FE8                     	;# 
   824     1FE8                     	;# 
   825     1FE9                     	;# 
   826     1FEA                     	;# 
   827     1FEA                     	;# 
   828     1FEB                     	;# 
   829     1FED                     	;# 
   830     1FEE                     	;# 
   831     1FEF                     	;# 
   832     0000                     	;# 
   833     0001                     	;# 
   834     0002                     	;# 
   835     0003                     	;# 
   836     0004                     	;# 
   837     0005                     	;# 
   838     0006                     	;# 
   839     0007                     	;# 
   840     0008                     	;# 
   841     0009                     	;# 
   842     000A                     	;# 
   843     000B                     	;# 
   844     000C                     	;# 
   845     000D                     	;# 
   846     000E                     	;# 
   847     000F                     	;# 
   848     0010                     	;# 
   849     0012                     	;# 
   850     0013                     	;# 
   851     0014                     	;# 
   852     0015                     	;# 
   853     0016                     	;# 
   854     0018                     	;# 
   855     0019                     	;# 
   856     001A                     	;# 
   857     001B                     	;# 
   858     001C                     	;# 
   859     008C                     	;# 
   860     008D                     	;# 
   861     008E                     	;# 
   862     008F                     	;# 
   863     0090                     	;# 
   864     0096                     	;# 
   865     0097                     	;# 
   866     0098                     	;# 
   867     0099                     	;# 
   868     009A                     	;# 
   869     018C                     	;# 
   870     018D                     	;# 
   871     018E                     	;# 
   872     018F                     	;# 
   873     019C                     	;# 
   874     019C                     	;# 
   875     019D                     	;# 
   876     019D                     	;# 
   877     019E                     	;# 
   878     019F                     	;# 
   879     020E                     	;# 
   880     020F                     	;# 
   881     0210                     	;# 
   882     0211                     	;# 
   883     0212                     	;# 
   884     0213                     	;# 
   885     0214                     	;# 
   886     028C                     	;# 
   887     028C                     	;# 
   888     028D                     	;# 
   889     028E                     	;# 
   890     028F                     	;# 
   891     028F                     	;# 
   892     0290                     	;# 
   893     0290                     	;# 
   894     0291                     	;# 
   895     0291                     	;# 
   896     0292                     	;# 
   897     0292                     	;# 
   898     0293                     	;# 
   899     0294                     	;# 
   900     0295                     	;# 
   901     0295                     	;# 
   902     0296                     	;# 
   903     0296                     	;# 
   904     0297                     	;# 
   905     0297                     	;# 
   906     030C                     	;# 
   907     030C                     	;# 
   908     030D                     	;# 
   909     030D                     	;# 
   910     030E                     	;# 
   911     030F                     	;# 
   912     0310                     	;# 
   913     0310                     	;# 
   914     0311                     	;# 
   915     0312                     	;# 
   916     0312                     	;# 
   917     0313                     	;# 
   918     0313                     	;# 
   919     0314                     	;# 
   920     0315                     	;# 
   921     0316                     	;# 
   922     0316                     	;# 
   923     0317                     	;# 
   924     0318                     	;# 
   925     0318                     	;# 
   926     0319                     	;# 
   927     0319                     	;# 
   928     031A                     	;# 
   929     031B                     	;# 
   930     031C                     	;# 
   931     031C                     	;# 
   932     031D                     	;# 
   933     038C                     	;# 
   934     038C                     	;# 
   935     038D                     	;# 
   936     038E                     	;# 
   937     038F                     	;# 
   938     0390                     	;# 
   939     0390                     	;# 
   940     0391                     	;# 
   941     0392                     	;# 
   942     0393                     	;# 
   943     039F                     	;# 
   944     040C                     	;# 
   945     040C                     	;# 
   946     040D                     	;# 
   947     040E                     	;# 
   948     040F                     	;# 
   949     040F                     	;# 
   950     0410                     	;# 
   951     0411                     	;# 
   952     0412                     	;# 
   953     0412                     	;# 
   954     0413                     	;# 
   955     0414                     	;# 
   956     041F                     	;# 
   957     048C                     	;# 
   958     048C                     	;# 
   959     048D                     	;# 
   960     048E                     	;# 
   961     048F                     	;# 
   962     048F                     	;# 
   963     0490                     	;# 
   964     0491                     	;# 
   965     0492                     	;# 
   966     0493                     	;# 
   967     050C                     	;# 
   968     050C                     	;# 
   969     050D                     	;# 
   970     050D                     	;# 
   971     050E                     	;# 
   972     050F                     	;# 
   973     0510                     	;# 
   974     0511                     	;# 
   975     0512                     	;# 
   976     0513                     	;# 
   977     0514                     	;# 
   978     058C                     	;# 
   979     058D                     	;# 
   980     058E                     	;# 
   981     058F                     	;# 
   982     0590                     	;# 
   983     0591                     	;# 
   984     0592                     	;# 
   985     0593                     	;# 
   986     0594                     	;# 
   987     0595                     	;# 
   988     0596                     	;# 
   989     0597                     	;# 
   990     060C                     	;# 
   991     060D                     	;# 
   992     060E                     	;# 
   993     060E                     	;# 
   994     060F                     	;# 
   995     0610                     	;# 
   996     0611                     	;# 
   997     0612                     	;# 
   998     0616                     	;# 
   999     0617                     	;# 
  1000     0618                     	;# 
  1001     0618                     	;# 
  1002     0619                     	;# 
  1003     061A                     	;# 
  1004     061B                     	;# 
  1005     061C                     	;# 
  1006     068C                     	;# 
  1007     068D                     	;# 
  1008     068E                     	;# 
  1009     068F                     	;# 
  1010     0690                     	;# 
  1011     0691                     	;# 
  1012     0692                     	;# 
  1013     0696                     	;# 
  1014     0697                     	;# 
  1015     0698                     	;# 
  1016     0699                     	;# 
  1017     069A                     	;# 
  1018     069B                     	;# 
  1019     069C                     	;# 
  1020     100C                     	;# 
  1021     100D                     	;# 
  1022     101F                     	;# 
  1023     108C                     	;# 
  1024     108D                     	;# 
  1025     108E                     	;# 
  1026     108F                     	;# 
  1027     109F                     	;# 
  1028     109F                     	;# 
  1029     110C                     	;# 
  1030     110D                     	;# 
  1031     1C8C                     	;# 
  1032     1C8C                     	;# 
  1033     1C8D                     	;# 
  1034     1C8E                     	;# 
  1035     1C8E                     	;# 
  1036     1C8F                     	;# 
  1037     1C90                     	;# 
  1038     1C91                     	;# 
  1039     1D0C                     	;# 
  1040     1D0C                     	;# 
  1041     1D0D                     	;# 
  1042     1D0E                     	;# 
  1043     1D0E                     	;# 
  1044     1D0F                     	;# 
  1045     1D10                     	;# 
  1046     1D10                     	;# 
  1047     1D11                     	;# 
  1048     1D12                     	;# 
  1049     1D12                     	;# 
  1050     1D13                     	;# 
  1051     1D14                     	;# 
  1052     1D14                     	;# 
  1053     1D15                     	;# 
  1054     1D16                     	;# 
  1055     1D16                     	;# 
  1056     1D17                     	;# 
  1057     1D18                     	;# 
  1058     1D19                     	;# 
  1059     1D1A                     	;# 
  1060     1D1B                     	;# 
  1061     1D1B                     	;# 
  1062     1D1C                     	;# 
  1063     1D1D                     	;# 
  1064     1D1D                     	;# 
  1065     1D1E                     	;# 
  1066     1D1F                     	;# 
  1067     1D21                     	;# 
  1068     1D21                     	;# 
  1069     1D22                     	;# 
  1070     1D23                     	;# 
  1071     1D24                     	;# 
  1072     1D24                     	;# 
  1073     1D25                     	;# 
  1074     1D26                     	;# 
  1075     1D27                     	;# 
  1076     1D28                     	;# 
  1077     1D29                     	;# 
  1078     1D2A                     	;# 
  1079     1D2B                     	;# 
  1080     1D2C                     	;# 
  1081     1D2D                     	;# 
  1082     1D2E                     	;# 
  1083     1D2F                     	;# 
  1084     1D30                     	;# 
  1085     1D31                     	;# 
  1086     1D32                     	;# 
  1087     1D8C                     	;# 
  1088     1D8D                     	;# 
  1089     1D8E                     	;# 
  1090     1D8F                     	;# 
  1091     1D90                     	;# 
  1092     1D91                     	;# 
  1093     1D92                     	;# 
  1094     1D93                     	;# 
  1095     1D94                     	;# 
  1096     1D95                     	;# 
  1097     1D96                     	;# 
  1098     1D97                     	;# 
  1099     1D98                     	;# 
  1100     1D99                     	;# 
  1101     1D9A                     	;# 
  1102     1D9B                     	;# 
  1103     1D9C                     	;# 
  1104     1D9D                     	;# 
  1105     1D9E                     	;# 
  1106     1D9F                     	;# 
  1107     1DA0                     	;# 
  1108     1DA1                     	;# 
  1109     1DA2                     	;# 
  1110     1DA3                     	;# 
  1111     1DA4                     	;# 
  1112     1DA5                     	;# 
  1113     1DA6                     	;# 
  1114     1DA7                     	;# 
  1115     1DA8                     	;# 
  1116     1DA9                     	;# 
  1117     1DAA                     	;# 
  1118     1DAB                     	;# 
  1119     1DAC                     	;# 
  1120     1DAD                     	;# 
  1121     1DAE                     	;# 
  1122     1E0C                     	;# 
  1123     1E0D                     	;# 
  1124     1E0E                     	;# 
  1125     1E0F                     	;# 
  1126     1E10                     	;# 
  1127     1E11                     	;# 
  1128     1E12                     	;# 
  1129     1E19                     	;# 
  1130     1E1A                     	;# 
  1131     1E1B                     	;# 
  1132     1E1E                     	;# 
  1133     1E1F                     	;# 
  1134     1E39                     	;# 
  1135     1E3D                     	;# 
  1136     1E3E                     	;# 
  1137     1E3F                     	;# 
  1138     1E40                     	;# 
  1139     1E41                     	;# 
  1140     1E41                     	;# 
  1141     1E42                     	;# 
  1142     1E42                     	;# 
  1143     1E43                     	;# 
  1144     1E43                     	;# 
  1145     1E44                     	;# 
  1146     1E44                     	;# 
  1147     1E47                     	;# 
  1148     1E48                     	;# 
  1149     1E49                     	;# 
  1150     1E4A                     	;# 
  1151     1E4B                     	;# 
  1152     1E4C                     	;# 
  1153     1E50                     	;# 
  1154     1E8C                     	;# 
  1155     1E8D                     	;# 
  1156     1E8E                     	;# 
  1157     1E8F                     	;# 
  1158     1E90                     	;# 
  1159     1E91                     	;# 
  1160     1E92                     	;# 
  1161     1E93                     	;# 
  1162     1E96                     	;# 
  1163     1E97                     	;# 
  1164     1E98                     	;# 
  1165     1E99                     	;# 
  1166     1E9A                     	;# 
  1167     1E9B                     	;# 
  1168     1E9C                     	;# 
  1169     1E9D                     	;# 
  1170     1EA0                     	;# 
  1171     1EA1                     	;# 
  1172     1EA2                     	;# 
  1173     1EA3                     	;# 
  1174     1EA4                     	;# 
  1175     1EA5                     	;# 
  1176     1EA6                     	;# 
  1177     1EA7                     	;# 
  1178     1EAA                     	;# 
  1179     1EAB                     	;# 
  1180     1EAC                     	;# 
  1181     1EAD                     	;# 
  1182     1EAE                     	;# 
  1183     1EB4                     	;# 
  1184     1EB5                     	;# 
  1185     1EB6                     	;# 
  1186     1EB7                     	;# 
  1187     1EB8                     	;# 
  1188     1EB9                     	;# 
  1189     1EBA                     	;# 
  1190     1EBB                     	;# 
  1191     1EE3                     	;# 
  1192     1EE4                     	;# 
  1193     1EEB                     	;# 
  1194     1EEC                     	;# 
  1195     1EEE                     	;# 
  1196     1EEF                     	;# 
  1197     1F0C                     	;# 
  1198     1F0D                     	;# 
  1199     1F0E                     	;# 
  1200     1FE4                     	;# 
  1201     1FE5                     	;# 
  1202     1FE6                     	;# 
  1203     1FE7                     	;# 
  1204     1FE8                     	;# 
  1205     1FE8                     	;# 
  1206     1FE9                     	;# 
  1207     1FEA                     	;# 
  1208     1FEA                     	;# 
  1209     1FEB                     	;# 
  1210     1FED                     	;# 
  1211     1FEE                     	;# 
  1212     1FEF                     	;# 
  1213     0000                     	;# 
  1214     0001                     	;# 
  1215     0002                     	;# 
  1216     0003                     	;# 
  1217     0004                     	;# 
  1218     0005                     	;# 
  1219     0006                     	;# 
  1220     0007                     	;# 
  1221     0008                     	;# 
  1222     0009                     	;# 
  1223     000A                     	;# 
  1224     000B                     	;# 
  1225     000C                     	;# 
  1226     000D                     	;# 
  1227     000E                     	;# 
  1228     000F                     	;# 
  1229     0010                     	;# 
  1230     0012                     	;# 
  1231     0013                     	;# 
  1232     0014                     	;# 
  1233     0015                     	;# 
  1234     0016                     	;# 
  1235     0018                     	;# 
  1236     0019                     	;# 
  1237     001A                     	;# 
  1238     001B                     	;# 
  1239     001C                     	;# 
  1240     008C                     	;# 
  1241     008D                     	;# 
  1242     008E                     	;# 
  1243     008F                     	;# 
  1244     0090                     	;# 
  1245     0096                     	;# 
  1246     0097                     	;# 
  1247     0098                     	;# 
  1248     0099                     	;# 
  1249     009A                     	;# 
  1250     018C                     	;# 
  1251     018D                     	;# 
  1252     018E                     	;# 
  1253     018F                     	;# 
  1254     019C                     	;# 
  1255     019C                     	;# 
  1256     019D                     	;# 
  1257     019D                     	;# 
  1258     019E                     	;# 
  1259     019F                     	;# 
  1260     020E                     	;# 
  1261     020F                     	;# 
  1262     0210                     	;# 
  1263     0211                     	;# 
  1264     0212                     	;# 
  1265     0213                     	;# 
  1266     0214                     	;# 
  1267     028C                     	;# 
  1268     028C                     	;# 
  1269     028D                     	;# 
  1270     028E                     	;# 
  1271     028F                     	;# 
  1272     028F                     	;# 
  1273     0290                     	;# 
  1274     0290                     	;# 
  1275     0291                     	;# 
  1276     0291                     	;# 
  1277     0292                     	;# 
  1278     0292                     	;# 
  1279     0293                     	;# 
  1280     0294                     	;# 
  1281     0295                     	;# 
  1282     0295                     	;# 
  1283     0296                     	;# 
  1284     0296                     	;# 
  1285     0297                     	;# 
  1286     0297                     	;# 
  1287     030C                     	;# 
  1288     030C                     	;# 
  1289     030D                     	;# 
  1290     030D                     	;# 
  1291     030E                     	;# 
  1292     030F                     	;# 
  1293     0310                     	;# 
  1294     0310                     	;# 
  1295     0311                     	;# 
  1296     0312                     	;# 
  1297     0312                     	;# 
  1298     0313                     	;# 
  1299     0313                     	;# 
  1300     0314                     	;# 
  1301     0315                     	;# 
  1302     0316                     	;# 
  1303     0316                     	;# 
  1304     0317                     	;# 
  1305     0318                     	;# 
  1306     0318                     	;# 
  1307     0319                     	;# 
  1308     0319                     	;# 
  1309     031A                     	;# 
  1310     031B                     	;# 
  1311     031C                     	;# 
  1312     031C                     	;# 
  1313     031D                     	;# 
  1314     038C                     	;# 
  1315     038C                     	;# 
  1316     038D                     	;# 
  1317     038E                     	;# 
  1318     038F                     	;# 
  1319     0390                     	;# 
  1320     0390                     	;# 
  1321     0391                     	;# 
  1322     0392                     	;# 
  1323     0393                     	;# 
  1324     039F                     	;# 
  1325     040C                     	;# 
  1326     040C                     	;# 
  1327     040D                     	;# 
  1328     040E                     	;# 
  1329     040F                     	;# 
  1330     040F                     	;# 
  1331     0410                     	;# 
  1332     0411                     	;# 
  1333     0412                     	;# 
  1334     0412                     	;# 
  1335     0413                     	;# 
  1336     0414                     	;# 
  1337     041F                     	;# 
  1338     048C                     	;# 
  1339     048C                     	;# 
  1340     048D                     	;# 
  1341     048E                     	;# 
  1342     048F                     	;# 
  1343     048F                     	;# 
  1344     0490                     	;# 
  1345     0491                     	;# 
  1346     0492                     	;# 
  1347     0493                     	;# 
  1348     050C                     	;# 
  1349     050C                     	;# 
  1350     050D                     	;# 
  1351     050D                     	;# 
  1352     050E                     	;# 
  1353     050F                     	;# 
  1354     0510                     	;# 
  1355     0511                     	;# 
  1356     0512                     	;# 
  1357     0513                     	;# 
  1358     0514                     	;# 
  1359     058C                     	;# 
  1360     058D                     	;# 
  1361     058E                     	;# 
  1362     058F                     	;# 
  1363     0590                     	;# 
  1364     0591                     	;# 
  1365     0592                     	;# 
  1366     0593                     	;# 
  1367     0594                     	;# 
  1368     0595                     	;# 
  1369     0596                     	;# 
  1370     0597                     	;# 
  1371     060C                     	;# 
  1372     060D                     	;# 
  1373     060E                     	;# 
  1374     060E                     	;# 
  1375     060F                     	;# 
  1376     0610                     	;# 
  1377     0611                     	;# 
  1378     0612                     	;# 
  1379     0616                     	;# 
  1380     0617                     	;# 
  1381     0618                     	;# 
  1382     0618                     	;# 
  1383     0619                     	;# 
  1384     061A                     	;# 
  1385     061B                     	;# 
  1386     061C                     	;# 
  1387     068C                     	;# 
  1388     068D                     	;# 
  1389     068E                     	;# 
  1390     068F                     	;# 
  1391     0690                     	;# 
  1392     0691                     	;# 
  1393     0692                     	;# 
  1394     0696                     	;# 
  1395     0697                     	;# 
  1396     0698                     	;# 
  1397     0699                     	;# 
  1398     069A                     	;# 
  1399     069B                     	;# 
  1400     069C                     	;# 
  1401     100C                     	;# 
  1402     100D                     	;# 
  1403     101F                     	;# 
  1404     108C                     	;# 
  1405     108D                     	;# 
  1406     108E                     	;# 
  1407     108F                     	;# 
  1408     109F                     	;# 
  1409     109F                     	;# 
  1410     110C                     	;# 
  1411     110D                     	;# 
  1412     1C8C                     	;# 
  1413     1C8C                     	;# 
  1414     1C8D                     	;# 
  1415     1C8E                     	;# 
  1416     1C8E                     	;# 
  1417     1C8F                     	;# 
  1418     1C90                     	;# 
  1419     1C91                     	;# 
  1420     1D0C                     	;# 
  1421     1D0C                     	;# 
  1422     1D0D                     	;# 
  1423     1D0E                     	;# 
  1424     1D0E                     	;# 
  1425     1D0F                     	;# 
  1426     1D10                     	;# 
  1427     1D10                     	;# 
  1428     1D11                     	;# 
  1429     1D12                     	;# 
  1430     1D12                     	;# 
  1431     1D13                     	;# 
  1432     1D14                     	;# 
  1433     1D14                     	;# 
  1434     1D15                     	;# 
  1435     1D16                     	;# 
  1436     1D16                     	;# 
  1437     1D17                     	;# 
  1438     1D18                     	;# 
  1439     1D19                     	;# 
  1440     1D1A                     	;# 
  1441     1D1B                     	;# 
  1442     1D1B                     	;# 
  1443     1D1C                     	;# 
  1444     1D1D                     	;# 
  1445     1D1D                     	;# 
  1446     1D1E                     	;# 
  1447     1D1F                     	;# 
  1448     1D21                     	;# 
  1449     1D21                     	;# 
  1450     1D22                     	;# 
  1451     1D23                     	;# 
  1452     1D24                     	;# 
  1453     1D24                     	;# 
  1454     1D25                     	;# 
  1455     1D26                     	;# 
  1456     1D27                     	;# 
  1457     1D28                     	;# 
  1458     1D29                     	;# 
  1459     1D2A                     	;# 
  1460     1D2B                     	;# 
  1461     1D2C                     	;# 
  1462     1D2D                     	;# 
  1463     1D2E                     	;# 
  1464     1D2F                     	;# 
  1465     1D30                     	;# 
  1466     1D31                     	;# 
  1467     1D32                     	;# 
  1468     1D8C                     	;# 
  1469     1D8D                     	;# 
  1470     1D8E                     	;# 
  1471     1D8F                     	;# 
  1472     1D90                     	;# 
  1473     1D91                     	;# 
  1474     1D92                     	;# 
  1475     1D93                     	;# 
  1476     1D94                     	;# 
  1477     1D95                     	;# 
  1478     1D96                     	;# 
  1479     1D97                     	;# 
  1480     1D98                     	;# 
  1481     1D99                     	;# 
  1482     1D9A                     	;# 
  1483     1D9B                     	;# 
  1484     1D9C                     	;# 
  1485     1D9D                     	;# 
  1486     1D9E                     	;# 
  1487     1D9F                     	;# 
  1488     1DA0                     	;# 
  1489     1DA1                     	;# 
  1490     1DA2                     	;# 
  1491     1DA3                     	;# 
  1492     1DA4                     	;# 
  1493     1DA5                     	;# 
  1494     1DA6                     	;# 
  1495     1DA7                     	;# 
  1496     1DA8                     	;# 
  1497     1DA9                     	;# 
  1498     1DAA                     	;# 
  1499     1DAB                     	;# 
  1500     1DAC                     	;# 
  1501     1DAD                     	;# 
  1502     1DAE                     	;# 
  1503     1E0C                     	;# 
  1504     1E0D                     	;# 
  1505     1E0E                     	;# 
  1506     1E0F                     	;# 
  1507     1E10                     	;# 
  1508     1E11                     	;# 
  1509     1E12                     	;# 
  1510     1E19                     	;# 
  1511     1E1A                     	;# 
  1512     1E1B                     	;# 
  1513     1E1E                     	;# 
  1514     1E1F                     	;# 
  1515     1E39                     	;# 
  1516     1E3D                     	;# 
  1517     1E3E                     	;# 
  1518     1E3F                     	;# 
  1519     1E40                     	;# 
  1520     1E41                     	;# 
  1521     1E41                     	;# 
  1522     1E42                     	;# 
  1523     1E42                     	;# 
  1524     1E43                     	;# 
  1525     1E43                     	;# 
  1526     1E44                     	;# 
  1527     1E44                     	;# 
  1528     1E47                     	;# 
  1529     1E48                     	;# 
  1530     1E49                     	;# 
  1531     1E4A                     	;# 
  1532     1E4B                     	;# 
  1533     1E4C                     	;# 
  1534     1E50                     	;# 
  1535     1E8C                     	;# 
  1536     1E8D                     	;# 
  1537     1E8E                     	;# 
  1538     1E8F                     	;# 
  1539     1E90                     	;# 
  1540     1E91                     	;# 
  1541     1E92                     	;# 
  1542     1E93                     	;# 
  1543     1E96                     	;# 
  1544     1E97                     	;# 
  1545     1E98                     	;# 
  1546     1E99                     	;# 
  1547     1E9A                     	;# 
  1548     1E9B                     	;# 
  1549     1E9C                     	;# 
  1550     1E9D                     	;# 
  1551     1EA0                     	;# 
  1552     1EA1                     	;# 
  1553     1EA2                     	;# 
  1554     1EA3                     	;# 
  1555     1EA4                     	;# 
  1556     1EA5                     	;# 
  1557     1EA6                     	;# 
  1558     1EA7                     	;# 
  1559     1EAA                     	;# 
  1560     1EAB                     	;# 
  1561     1EAC                     	;# 
  1562     1EAD                     	;# 
  1563     1EAE                     	;# 
  1564     1EB4                     	;# 
  1565     1EB5                     	;# 
  1566     1EB6                     	;# 
  1567     1EB7                     	;# 
  1568     1EB8                     	;# 
  1569     1EB9                     	;# 
  1570     1EBA                     	;# 
  1571     1EBB                     	;# 
  1572     1EE3                     	;# 
  1573     1EE4                     	;# 
  1574     1EEB                     	;# 
  1575     1EEC                     	;# 
  1576     1EEE                     	;# 
  1577     1EEF                     	;# 
  1578     1F0C                     	;# 
  1579     1F0D                     	;# 
  1580     1F0E                     	;# 
  1581     1FE4                     	;# 
  1582     1FE5                     	;# 
  1583     1FE6                     	;# 
  1584     1FE7                     	;# 
  1585     1FE8                     	;# 
  1586     1FE8                     	;# 
  1587     1FE9                     	;# 
  1588     1FEA                     	;# 
  1589     1FEA                     	;# 
  1590     1FEB                     	;# 
  1591     1FED                     	;# 
  1592     1FEE                     	;# 
  1593     1FEF                     	;# 
  1594     0000                     	;# 
  1595     0001                     	;# 
  1596     0002                     	;# 
  1597     0003                     	;# 
  1598     0004                     	;# 
  1599     0005                     	;# 
  1600     0006                     	;# 
  1601     0007                     	;# 
  1602     0008                     	;# 
  1603     0009                     	;# 
  1604     000A                     	;# 
  1605     000B                     	;# 
  1606     000C                     	;# 
  1607     000D                     	;# 
  1608     000E                     	;# 
  1609     000F                     	;# 
  1610     0010                     	;# 
  1611     0012                     	;# 
  1612     0013                     	;# 
  1613     0014                     	;# 
  1614     0015                     	;# 
  1615     0016                     	;# 
  1616     0018                     	;# 
  1617     0019                     	;# 
  1618     001A                     	;# 
  1619     001B                     	;# 
  1620     001C                     	;# 
  1621     008C                     	;# 
  1622     008D                     	;# 
  1623     008E                     	;# 
  1624     008F                     	;# 
  1625     0090                     	;# 
  1626     0096                     	;# 
  1627     0097                     	;# 
  1628     0098                     	;# 
  1629     0099                     	;# 
  1630     009A                     	;# 
  1631     018C                     	;# 
  1632     018D                     	;# 
  1633     018E                     	;# 
  1634     018F                     	;# 
  1635     019C                     	;# 
  1636     019C                     	;# 
  1637     019D                     	;# 
  1638     019D                     	;# 
  1639     019E                     	;# 
  1640     019F                     	;# 
  1641     020E                     	;# 
  1642     020F                     	;# 
  1643     0210                     	;# 
  1644     0211                     	;# 
  1645     0212                     	;# 
  1646     0213                     	;# 
  1647     0214                     	;# 
  1648     028C                     	;# 
  1649     028C                     	;# 
  1650     028D                     	;# 
  1651     028E                     	;# 
  1652     028F                     	;# 
  1653     028F                     	;# 
  1654     0290                     	;# 
  1655     0290                     	;# 
  1656     0291                     	;# 
  1657     0291                     	;# 
  1658     0292                     	;# 
  1659     0292                     	;# 
  1660     0293                     	;# 
  1661     0294                     	;# 
  1662     0295                     	;# 
  1663     0295                     	;# 
  1664     0296                     	;# 
  1665     0296                     	;# 
  1666     0297                     	;# 
  1667     0297                     	;# 
  1668     030C                     	;# 
  1669     030C                     	;# 
  1670     030D                     	;# 
  1671     030D                     	;# 
  1672     030E                     	;# 
  1673     030F                     	;# 
  1674     0310                     	;# 
  1675     0310                     	;# 
  1676     0311                     	;# 
  1677     0312                     	;# 
  1678     0312                     	;# 
  1679     0313                     	;# 
  1680     0313                     	;# 
  1681     0314                     	;# 
  1682     0315                     	;# 
  1683     0316                     	;# 
  1684     0316                     	;# 
  1685     0317                     	;# 
  1686     0318                     	;# 
  1687     0318                     	;# 
  1688     0319                     	;# 
  1689     0319                     	;# 
  1690     031A                     	;# 
  1691     031B                     	;# 
  1692     031C                     	;# 
  1693     031C                     	;# 
  1694     031D                     	;# 
  1695     038C                     	;# 
  1696     038C                     	;# 
  1697     038D                     	;# 
  1698     038E                     	;# 
  1699     038F                     	;# 
  1700     0390                     	;# 
  1701     0390                     	;# 
  1702     0391                     	;# 
  1703     0392                     	;# 
  1704     0393                     	;# 
  1705     039F                     	;# 
  1706     040C                     	;# 
  1707     040C                     	;# 
  1708     040D                     	;# 
  1709     040E                     	;# 
  1710     040F                     	;# 
  1711     040F                     	;# 
  1712     0410                     	;# 
  1713     0411                     	;# 
  1714     0412                     	;# 
  1715     0412                     	;# 
  1716     0413                     	;# 
  1717     0414                     	;# 
  1718     041F                     	;# 
  1719     048C                     	;# 
  1720     048C                     	;# 
  1721     048D                     	;# 
  1722     048E                     	;# 
  1723     048F                     	;# 
  1724     048F                     	;# 
  1725     0490                     	;# 
  1726     0491                     	;# 
  1727     0492                     	;# 
  1728     0493                     	;# 
  1729     050C                     	;# 
  1730     050C                     	;# 
  1731     050D                     	;# 
  1732     050D                     	;# 
  1733     050E                     	;# 
  1734     050F                     	;# 
  1735     0510                     	;# 
  1736     0511                     	;# 
  1737     0512                     	;# 
  1738     0513                     	;# 
  1739     0514                     	;# 
  1740     058C                     	;# 
  1741     058D                     	;# 
  1742     058E                     	;# 
  1743     058F                     	;# 
  1744     0590                     	;# 
  1745     0591                     	;# 
  1746     0592                     	;# 
  1747     0593                     	;# 
  1748     0594                     	;# 
  1749     0595                     	;# 
  1750     0596                     	;# 
  1751     0597                     	;# 
  1752     060C                     	;# 
  1753     060D                     	;# 
  1754     060E                     	;# 
  1755     060E                     	;# 
  1756     060F                     	;# 
  1757     0610                     	;# 
  1758     0611                     	;# 
  1759     0612                     	;# 
  1760     0616                     	;# 
  1761     0617                     	;# 
  1762     0618                     	;# 
  1763     0618                     	;# 
  1764     0619                     	;# 
  1765     061A                     	;# 
  1766     061B                     	;# 
  1767     061C                     	;# 
  1768     068C                     	;# 
  1769     068D                     	;# 
  1770     068E                     	;# 
  1771     068F                     	;# 
  1772     0690                     	;# 
  1773     0691                     	;# 
  1774     0692                     	;# 
  1775     0696                     	;# 
  1776     0697                     	;# 
  1777     0698                     	;# 
  1778     0699                     	;# 
  1779     069A                     	;# 
  1780     069B                     	;# 
  1781     069C                     	;# 
  1782     100C                     	;# 
  1783     100D                     	;# 
  1784     101F                     	;# 
  1785     108C                     	;# 
  1786     108D                     	;# 
  1787     108E                     	;# 
  1788     108F                     	;# 
  1789     109F                     	;# 
  1790     109F                     	;# 
  1791     110C                     	;# 
  1792     110D                     	;# 
  1793     1C8C                     	;# 
  1794     1C8C                     	;# 
  1795     1C8D                     	;# 
  1796     1C8E                     	;# 
  1797     1C8E                     	;# 
  1798     1C8F                     	;# 
  1799     1C90                     	;# 
  1800     1C91                     	;# 
  1801     1D0C                     	;# 
  1802     1D0C                     	;# 
  1803     1D0D                     	;# 
  1804     1D0E                     	;# 
  1805     1D0E                     	;# 
  1806     1D0F                     	;# 
  1807     1D10                     	;# 
  1808     1D10                     	;# 
  1809     1D11                     	;# 
  1810     1D12                     	;# 
  1811     1D12                     	;# 
  1812     1D13                     	;# 
  1813     1D14                     	;# 
  1814     1D14                     	;# 
  1815     1D15                     	;# 
  1816     1D16                     	;# 
  1817     1D16                     	;# 
  1818     1D17                     	;# 
  1819     1D18                     	;# 
  1820     1D19                     	;# 
  1821     1D1A                     	;# 
  1822     1D1B                     	;# 
  1823     1D1B                     	;# 
  1824     1D1C                     	;# 
  1825     1D1D                     	;# 
  1826     1D1D                     	;# 
  1827     1D1E                     	;# 
  1828     1D1F                     	;# 
  1829     1D21                     	;# 
  1830     1D21                     	;# 
  1831     1D22                     	;# 
  1832     1D23                     	;# 
  1833     1D24                     	;# 
  1834     1D24                     	;# 
  1835     1D25                     	;# 
  1836     1D26                     	;# 
  1837     1D27                     	;# 
  1838     1D28                     	;# 
  1839     1D29                     	;# 
  1840     1D2A                     	;# 
  1841     1D2B                     	;# 
  1842     1D2C                     	;# 
  1843     1D2D                     	;# 
  1844     1D2E                     	;# 
  1845     1D2F                     	;# 
  1846     1D30                     	;# 
  1847     1D31                     	;# 
  1848     1D32                     	;# 
  1849     1D8C                     	;# 
  1850     1D8D                     	;# 
  1851     1D8E                     	;# 
  1852     1D8F                     	;# 
  1853     1D90                     	;# 
  1854     1D91                     	;# 
  1855     1D92                     	;# 
  1856     1D93                     	;# 
  1857     1D94                     	;# 
  1858     1D95                     	;# 
  1859     1D96                     	;# 
  1860     1D97                     	;# 
  1861     1D98                     	;# 
  1862     1D99                     	;# 
  1863     1D9A                     	;# 
  1864     1D9B                     	;# 
  1865     1D9C                     	;# 
  1866     1D9D                     	;# 
  1867     1D9E                     	;# 
  1868     1D9F                     	;# 
  1869     1DA0                     	;# 
  1870     1DA1                     	;# 
  1871     1DA2                     	;# 
  1872     1DA3                     	;# 
  1873     1DA4                     	;# 
  1874     1DA5                     	;# 
  1875     1DA6                     	;# 
  1876     1DA7                     	;# 
  1877     1DA8                     	;# 
  1878     1DA9                     	;# 
  1879     1DAA                     	;# 
  1880     1DAB                     	;# 
  1881     1DAC                     	;# 
  1882     1DAD                     	;# 
  1883     1DAE                     	;# 
  1884     1E0C                     	;# 
  1885     1E0D                     	;# 
  1886     1E0E                     	;# 
  1887     1E0F                     	;# 
  1888     1E10                     	;# 
  1889     1E11                     	;# 
  1890     1E12                     	;# 
  1891     1E19                     	;# 
  1892     1E1A                     	;# 
  1893     1E1B                     	;# 
  1894     1E1E                     	;# 
  1895     1E1F                     	;# 
  1896     1E39                     	;# 
  1897     1E3D                     	;# 
  1898     1E3E                     	;# 
  1899     1E3F                     	;# 
  1900     1E40                     	;# 
  1901     1E41                     	;# 
  1902     1E41                     	;# 
  1903     1E42                     	;# 
  1904     1E42                     	;# 
  1905     1E43                     	;# 
  1906     1E43                     	;# 
  1907     1E44                     	;# 
  1908     1E44                     	;# 
  1909     1E47                     	;# 
  1910     1E48                     	;# 
  1911     1E49                     	;# 
  1912     1E4A                     	;# 
  1913     1E4B                     	;# 
  1914     1E4C                     	;# 
  1915     1E50                     	;# 
  1916     1E8C                     	;# 
  1917     1E8D                     	;# 
  1918     1E8E                     	;# 
  1919     1E8F                     	;# 
  1920     1E90                     	;# 
  1921     1E91                     	;# 
  1922     1E92                     	;# 
  1923     1E93                     	;# 
  1924     1E96                     	;# 
  1925     1E97                     	;# 
  1926     1E98                     	;# 
  1927     1E99                     	;# 
  1928     1E9A                     	;# 
  1929     1E9B                     	;# 
  1930     1E9C                     	;# 
  1931     1E9D                     	;# 
  1932     1EA0                     	;# 
  1933     1EA1                     	;# 
  1934     1EA2                     	;# 
  1935     1EA3                     	;# 
  1936     1EA4                     	;# 
  1937     1EA5                     	;# 
  1938     1EA6                     	;# 
  1939     1EA7                     	;# 
  1940     1EAA                     	;# 
  1941     1EAB                     	;# 
  1942     1EAC                     	;# 
  1943     1EAD                     	;# 
  1944     1EAE                     	;# 
  1945     1EB4                     	;# 
  1946     1EB5                     	;# 
  1947     1EB6                     	;# 
  1948     1EB7                     	;# 
  1949     1EB8                     	;# 
  1950     1EB9                     	;# 
  1951     1EBA                     	;# 
  1952     1EBB                     	;# 
  1953     1EE3                     	;# 
  1954     1EE4                     	;# 
  1955     1EEB                     	;# 
  1956     1EEC                     	;# 
  1957     1EEE                     	;# 
  1958     1EEF                     	;# 
  1959     1F0C                     	;# 
  1960     1F0D                     	;# 
  1961     1F0E                     	;# 
  1962     1FE4                     	;# 
  1963     1FE5                     	;# 
  1964     1FE6                     	;# 
  1965     1FE7                     	;# 
  1966     1FE8                     	;# 
  1967     1FE8                     	;# 
  1968     1FE9                     	;# 
  1969     1FEA                     	;# 
  1970     1FEA                     	;# 
  1971     1FEB                     	;# 
  1972     1FED                     	;# 
  1973     1FEE                     	;# 
  1974     1FEF                     	;# 
  1975     0000                     	;# 
  1976     0001                     	;# 
  1977     0002                     	;# 
  1978     0003                     	;# 
  1979     0004                     	;# 
  1980     0005                     	;# 
  1981     0006                     	;# 
  1982     0007                     	;# 
  1983     0008                     	;# 
  1984     0009                     	;# 
  1985     000A                     	;# 
  1986     000B                     	;# 
  1987     000C                     	;# 
  1988     000D                     	;# 
  1989     000E                     	;# 
  1990     000F                     	;# 
  1991     0010                     	;# 
  1992     0012                     	;# 
  1993     0013                     	;# 
  1994     0014                     	;# 
  1995     0015                     	;# 
  1996     0016                     	;# 
  1997     0018                     	;# 
  1998     0019                     	;# 
  1999     001A                     	;# 
  2000     001B                     	;# 
  2001     001C                     	;# 
  2002     008C                     	;# 
  2003     008D                     	;# 
  2004     008E                     	;# 
  2005     008F                     	;# 
  2006     0090                     	;# 
  2007     0096                     	;# 
  2008     0097                     	;# 
  2009     0098                     	;# 
  2010     0099                     	;# 
  2011     009A                     	;# 
  2012     018C                     	;# 
  2013     018D                     	;# 
  2014     018E                     	;# 
  2015     018F                     	;# 
  2016     019C                     	;# 
  2017     019C                     	;# 
  2018     019D                     	;# 
  2019     019D                     	;# 
  2020     019E                     	;# 
  2021     019F                     	;# 
  2022     020E                     	;# 
  2023     020F                     	;# 
  2024     0210                     	;# 
  2025     0211                     	;# 
  2026     0212                     	;# 
  2027     0213                     	;# 
  2028     0214                     	;# 
  2029     028C                     	;# 
  2030     028C                     	;# 
  2031     028D                     	;# 
  2032     028E                     	;# 
  2033     028F                     	;# 
  2034     028F                     	;# 
  2035     0290                     	;# 
  2036     0290                     	;# 
  2037     0291                     	;# 
  2038     0291                     	;# 
  2039     0292                     	;# 
  2040     0292                     	;# 
  2041     0293                     	;# 
  2042     0294                     	;# 
  2043     0295                     	;# 
  2044     0295                     	;# 
  2045     0296                     	;# 
  2046     0296                     	;# 
  2047     0297                     	;# 
  2048     0297                     	;# 
  2049     030C                     	;# 
  2050     030C                     	;# 
  2051     030D                     	;# 
  2052     030D                     	;# 
  2053     030E                     	;# 
  2054     030F                     	;# 
  2055     0310                     	;# 
  2056     0310                     	;# 
  2057     0311                     	;# 
  2058     0312                     	;# 
  2059     0312                     	;# 
  2060     0313                     	;# 
  2061     0313                     	;# 
  2062     0314                     	;# 
  2063     0315                     	;# 
  2064     0316                     	;# 
  2065     0316                     	;# 
  2066     0317                     	;# 
  2067     0318                     	;# 
  2068     0318                     	;# 
  2069     0319                     	;# 
  2070     0319                     	;# 
  2071     031A                     	;# 
  2072     031B                     	;# 
  2073     031C                     	;# 
  2074     031C                     	;# 
  2075     031D                     	;# 
  2076     038C                     	;# 
  2077     038C                     	;# 
  2078     038D                     	;# 
  2079     038E                     	;# 
  2080     038F                     	;# 
  2081     0390                     	;# 
  2082     0390                     	;# 
  2083     0391                     	;# 
  2084     0392                     	;# 
  2085     0393                     	;# 
  2086     039F                     	;# 
  2087     040C                     	;# 
  2088     040C                     	;# 
  2089     040D                     	;# 
  2090     040E                     	;# 
  2091     040F                     	;# 
  2092     040F                     	;# 
  2093     0410                     	;# 
  2094     0411                     	;# 
  2095     0412                     	;# 
  2096     0412                     	;# 
  2097     0413                     	;# 
  2098     0414                     	;# 
  2099     041F                     	;# 
  2100     048C                     	;# 
  2101     048C                     	;# 
  2102     048D                     	;# 
  2103     048E                     	;# 
  2104     048F                     	;# 
  2105     048F                     	;# 
  2106     0490                     	;# 
  2107     0491                     	;# 
  2108     0492                     	;# 
  2109     0493                     	;# 
  2110     050C                     	;# 
  2111     050C                     	;# 
  2112     050D                     	;# 
  2113     050D                     	;# 
  2114     050E                     	;# 
  2115     050F                     	;# 
  2116     0510                     	;# 
  2117     0511                     	;# 
  2118     0512                     	;# 
  2119     0513                     	;# 
  2120     0514                     	;# 
  2121     058C                     	;# 
  2122     058D                     	;# 
  2123     058E                     	;# 
  2124     058F                     	;# 
  2125     0590                     	;# 
  2126     0591                     	;# 
  2127     0592                     	;# 
  2128     0593                     	;# 
  2129     0594                     	;# 
  2130     0595                     	;# 
  2131     0596                     	;# 
  2132     0597                     	;# 
  2133     060C                     	;# 
  2134     060D                     	;# 
  2135     060E                     	;# 
  2136     060E                     	;# 
  2137     060F                     	;# 
  2138     0610                     	;# 
  2139     0611                     	;# 
  2140     0612                     	;# 
  2141     0616                     	;# 
  2142     0617                     	;# 
  2143     0618                     	;# 
  2144     0618                     	;# 
  2145     0619                     	;# 
  2146     061A                     	;# 
  2147     061B                     	;# 
  2148     061C                     	;# 
  2149     068C                     	;# 
  2150     068D                     	;# 
  2151     068E                     	;# 
  2152     068F                     	;# 
  2153     0690                     	;# 
  2154     0691                     	;# 
  2155     0692                     	;# 
  2156     0696                     	;# 
  2157     0697                     	;# 
  2158     0698                     	;# 
  2159     0699                     	;# 
  2160     069A                     	;# 
  2161     069B                     	;# 
  2162     069C                     	;# 
  2163     100C                     	;# 
  2164     100D                     	;# 
  2165     101F                     	;# 
  2166     108C                     	;# 
  2167     108D                     	;# 
  2168     108E                     	;# 
  2169     108F                     	;# 
  2170     109F                     	;# 
  2171     109F                     	;# 
  2172     110C                     	;# 
  2173     110D                     	;# 
  2174     1C8C                     	;# 
  2175     1C8C                     	;# 
  2176     1C8D                     	;# 
  2177     1C8E                     	;# 
  2178     1C8E                     	;# 
  2179     1C8F                     	;# 
  2180     1C90                     	;# 
  2181     1C91                     	;# 
  2182     1D0C                     	;# 
  2183     1D0C                     	;# 
  2184     1D0D                     	;# 
  2185     1D0E                     	;# 
  2186     1D0E                     	;# 
  2187     1D0F                     	;# 
  2188     1D10                     	;# 
  2189     1D10                     	;# 
  2190     1D11                     	;# 
  2191     1D12                     	;# 
  2192     1D12                     	;# 
  2193     1D13                     	;# 
  2194     1D14                     	;# 
  2195     1D14                     	;# 
  2196     1D15                     	;# 
  2197     1D16                     	;# 
  2198     1D16                     	;# 
  2199     1D17                     	;# 
  2200     1D18                     	;# 
  2201     1D19                     	;# 
  2202     1D1A                     	;# 
  2203     1D1B                     	;# 
  2204     1D1B                     	;# 
  2205     1D1C                     	;# 
  2206     1D1D                     	;# 
  2207     1D1D                     	;# 
  2208     1D1E                     	;# 
  2209     1D1F                     	;# 
  2210     1D21                     	;# 
  2211     1D21                     	;# 
  2212     1D22                     	;# 
  2213     1D23                     	;# 
  2214     1D24                     	;# 
  2215     1D24                     	;# 
  2216     1D25                     	;# 
  2217     1D26                     	;# 
  2218     1D27                     	;# 
  2219     1D28                     	;# 
  2220     1D29                     	;# 
  2221     1D2A                     	;# 
  2222     1D2B                     	;# 
  2223     1D2C                     	;# 
  2224     1D2D                     	;# 
  2225     1D2E                     	;# 
  2226     1D2F                     	;# 
  2227     1D30                     	;# 
  2228     1D31                     	;# 
  2229     1D32                     	;# 
  2230     1D8C                     	;# 
  2231     1D8D                     	;# 
  2232     1D8E                     	;# 
  2233     1D8F                     	;# 
  2234     1D90                     	;# 
  2235     1D91                     	;# 
  2236     1D92                     	;# 
  2237     1D93                     	;# 
  2238     1D94                     	;# 
  2239     1D95                     	;# 
  2240     1D96                     	;# 
  2241     1D97                     	;# 
  2242     1D98                     	;# 
  2243     1D99                     	;# 
  2244     1D9A                     	;# 
  2245     1D9B                     	;# 
  2246     1D9C                     	;# 
  2247     1D9D                     	;# 
  2248     1D9E                     	;# 
  2249     1D9F                     	;# 
  2250     1DA0                     	;# 
  2251     1DA1                     	;# 
  2252     1DA2                     	;# 
  2253     1DA3                     	;# 
  2254     1DA4                     	;# 
  2255     1DA5                     	;# 
  2256     1DA6                     	;# 
  2257     1DA7                     	;# 
  2258     1DA8                     	;# 
  2259     1DA9                     	;# 
  2260     1DAA                     	;# 
  2261     1DAB                     	;# 
  2262     1DAC                     	;# 
  2263     1DAD                     	;# 
  2264     1DAE                     	;# 
  2265     1E0C                     	;# 
  2266     1E0D                     	;# 
  2267     1E0E                     	;# 
  2268     1E0F                     	;# 
  2269     1E10                     	;# 
  2270     1E11                     	;# 
  2271     1E12                     	;# 
  2272     1E19                     	;# 
  2273     1E1A                     	;# 
  2274     1E1B                     	;# 
  2275     1E1E                     	;# 
  2276     1E1F                     	;# 
  2277     1E39                     	;# 
  2278     1E3D                     	;# 
  2279     1E3E                     	;# 
  2280     1E3F                     	;# 
  2281     1E40                     	;# 
  2282     1E41                     	;# 
  2283     1E41                     	;# 
  2284     1E42                     	;# 
  2285     1E42                     	;# 
  2286     1E43                     	;# 
  2287     1E43                     	;# 
  2288     1E44                     	;# 
  2289     1E44                     	;# 
  2290     1E47                     	;# 
  2291     1E48                     	;# 
  2292     1E49                     	;# 
  2293     1E4A                     	;# 
  2294     1E4B                     	;# 
  2295     1E4C                     	;# 
  2296     1E50                     	;# 
  2297     1E8C                     	;# 
  2298     1E8D                     	;# 
  2299     1E8E                     	;# 
  2300     1E8F                     	;# 
  2301     1E90                     	;# 
  2302     1E91                     	;# 
  2303     1E92                     	;# 
  2304     1E93                     	;# 
  2305     1E96                     	;# 
  2306     1E97                     	;# 
  2307     1E98                     	;# 
  2308     1E99                     	;# 
  2309     1E9A                     	;# 
  2310     1E9B                     	;# 
  2311     1E9C                     	;# 
  2312     1E9D                     	;# 
  2313     1EA0                     	;# 
  2314     1EA1                     	;# 
  2315     1EA2                     	;# 
  2316     1EA3                     	;# 
  2317     1EA4                     	;# 
  2318     1EA5                     	;# 
  2319     1EA6                     	;# 
  2320     1EA7                     	;# 
  2321     1EAA                     	;# 
  2322     1EAB                     	;# 
  2323     1EAC                     	;# 
  2324     1EAD                     	;# 
  2325     1EAE                     	;# 
  2326     1EB4                     	;# 
  2327     1EB5                     	;# 
  2328     1EB6                     	;# 
  2329     1EB7                     	;# 
  2330     1EB8                     	;# 
  2331     1EB9                     	;# 
  2332     1EBA                     	;# 
  2333     1EBB                     	;# 
  2334     1EE3                     	;# 
  2335     1EE4                     	;# 
  2336     1EEB                     	;# 
  2337     1EEC                     	;# 
  2338     1EEE                     	;# 
  2339     1EEF                     	;# 
  2340     1F0C                     	;# 
  2341     1F0D                     	;# 
  2342     1F0E                     	;# 
  2343     1FE4                     	;# 
  2344     1FE5                     	;# 
  2345     1FE6                     	;# 
  2346     1FE7                     	;# 
  2347     1FE8                     	;# 
  2348     1FE8                     	;# 
  2349     1FE9                     	;# 
  2350     1FEA                     	;# 
  2351     1FEA                     	;# 
  2352     1FEB                     	;# 
  2353     1FED                     	;# 
  2354     1FEE                     	;# 
  2355     1FEF                     	;# 
  2356     0000                     	;# 
  2357     0001                     	;# 
  2358     0002                     	;# 
  2359     0003                     	;# 
  2360     0004                     	;# 
  2361     0005                     	;# 
  2362     0006                     	;# 
  2363     0007                     	;# 
  2364     0008                     	;# 
  2365     0009                     	;# 
  2366     000A                     	;# 
  2367     000B                     	;# 
  2368     000C                     	;# 
  2369     000D                     	;# 
  2370     000E                     	;# 
  2371     000F                     	;# 
  2372     0010                     	;# 
  2373     0012                     	;# 
  2374     0013                     	;# 
  2375     0014                     	;# 
  2376     0015                     	;# 
  2377     0016                     	;# 
  2378     0018                     	;# 
  2379     0019                     	;# 
  2380     001A                     	;# 
  2381     001B                     	;# 
  2382     001C                     	;# 
  2383     008C                     	;# 
  2384     008D                     	;# 
  2385     008E                     	;# 
  2386     008F                     	;# 
  2387     0090                     	;# 
  2388     0096                     	;# 
  2389     0097                     	;# 
  2390     0098                     	;# 
  2391     0099                     	;# 
  2392     009A                     	;# 
  2393     018C                     	;# 
  2394     018D                     	;# 
  2395     018E                     	;# 
  2396     018F                     	;# 
  2397     019C                     	;# 
  2398     019C                     	;# 
  2399     019D                     	;# 
  2400     019D                     	;# 
  2401     019E                     	;# 
  2402     019F                     	;# 
  2403     020E                     	;# 
  2404     020F                     	;# 
  2405     0210                     	;# 
  2406     0211                     	;# 
  2407     0212                     	;# 
  2408     0213                     	;# 
  2409     0214                     	;# 
  2410     028C                     	;# 
  2411     028C                     	;# 
  2412     028D                     	;# 
  2413     028E                     	;# 
  2414     028F                     	;# 
  2415     028F                     	;# 
  2416     0290                     	;# 
  2417     0290                     	;# 
  2418     0291                     	;# 
  2419     0291                     	;# 
  2420     0292                     	;# 
  2421     0292                     	;# 
  2422     0293                     	;# 
  2423     0294                     	;# 
  2424     0295                     	;# 
  2425     0295                     	;# 
  2426     0296                     	;# 
  2427     0296                     	;# 
  2428     0297                     	;# 
  2429     0297                     	;# 
  2430     030C                     	;# 
  2431     030C                     	;# 
  2432     030D                     	;# 
  2433     030D                     	;# 
  2434     030E                     	;# 
  2435     030F                     	;# 
  2436     0310                     	;# 
  2437     0310                     	;# 
  2438     0311                     	;# 
  2439     0312                     	;# 
  2440     0312                     	;# 
  2441     0313                     	;# 
  2442     0313                     	;# 
  2443     0314                     	;# 
  2444     0315                     	;# 
  2445     0316                     	;# 
  2446     0316                     	;# 
  2447     0317                     	;# 
  2448     0318                     	;# 
  2449     0318                     	;# 
  2450     0319                     	;# 
  2451     0319                     	;# 
  2452     031A                     	;# 
  2453     031B                     	;# 
  2454     031C                     	;# 
  2455     031C                     	;# 
  2456     031D                     	;# 
  2457     038C                     	;# 
  2458     038C                     	;# 
  2459     038D                     	;# 
  2460     038E                     	;# 
  2461     038F                     	;# 
  2462     0390                     	;# 
  2463     0390                     	;# 
  2464     0391                     	;# 
  2465     0392                     	;# 
  2466     0393                     	;# 
  2467     039F                     	;# 
  2468     040C                     	;# 
  2469     040C                     	;# 
  2470     040D                     	;# 
  2471     040E                     	;# 
  2472     040F                     	;# 
  2473     040F                     	;# 
  2474     0410                     	;# 
  2475     0411                     	;# 
  2476     0412                     	;# 
  2477     0412                     	;# 
  2478     0413                     	;# 
  2479     0414                     	;# 
  2480     041F                     	;# 
  2481     048C                     	;# 
  2482     048C                     	;# 
  2483     048D                     	;# 
  2484     048E                     	;# 
  2485     048F                     	;# 
  2486     048F                     	;# 
  2487     0490                     	;# 
  2488     0491                     	;# 
  2489     0492                     	;# 
  2490     0493                     	;# 
  2491     050C                     	;# 
  2492     050C                     	;# 
  2493     050D                     	;# 
  2494     050D                     	;# 
  2495     050E                     	;# 
  2496     050F                     	;# 
  2497     0510                     	;# 
  2498     0511                     	;# 
  2499     0512                     	;# 
  2500     0513                     	;# 
  2501     0514                     	;# 
  2502     058C                     	;# 
  2503     058D                     	;# 
  2504     058E                     	;# 
  2505     058F                     	;# 
  2506     0590                     	;# 
  2507     0591                     	;# 
  2508     0592                     	;# 
  2509     0593                     	;# 
  2510     0594                     	;# 
  2511     0595                     	;# 
  2512     0596                     	;# 
  2513     0597                     	;# 
  2514     060C                     	;# 
  2515     060D                     	;# 
  2516     060E                     	;# 
  2517     060E                     	;# 
  2518     060F                     	;# 
  2519     0610                     	;# 
  2520     0611                     	;# 
  2521     0612                     	;# 
  2522     0616                     	;# 
  2523     0617                     	;# 
  2524     0618                     	;# 
  2525     0618                     	;# 
  2526     0619                     	;# 
  2527     061A                     	;# 
  2528     061B                     	;# 
  2529     061C                     	;# 
  2530     068C                     	;# 
  2531     068D                     	;# 
  2532     068E                     	;# 
  2533     068F                     	;# 
  2534     0690                     	;# 
  2535     0691                     	;# 
  2536     0692                     	;# 
  2537     0696                     	;# 
  2538     0697                     	;# 
  2539     0698                     	;# 
  2540     0699                     	;# 
  2541     069A                     	;# 
  2542     069B                     	;# 
  2543     069C                     	;# 
  2544     100C                     	;# 
  2545     100D                     	;# 
  2546     101F                     	;# 
  2547     108C                     	;# 
  2548     108D                     	;# 
  2549     108E                     	;# 
  2550     108F                     	;# 
  2551     109F                     	;# 
  2552     109F                     	;# 
  2553     110C                     	;# 
  2554     110D                     	;# 
  2555     1C8C                     	;# 
  2556     1C8C                     	;# 
  2557     1C8D                     	;# 
  2558     1C8E                     	;# 
  2559     1C8E                     	;# 
  2560     1C8F                     	;# 
  2561     1C90                     	;# 
  2562     1C91                     	;# 
  2563     1D0C                     	;# 
  2564     1D0C                     	;# 
  2565     1D0D                     	;# 
  2566     1D0E                     	;# 
  2567     1D0E                     	;# 
  2568     1D0F                     	;# 
  2569     1D10                     	;# 
  2570     1D10                     	;# 
  2571     1D11                     	;# 
  2572     1D12                     	;# 
  2573     1D12                     	;# 
  2574     1D13                     	;# 
  2575     1D14                     	;# 
  2576     1D14                     	;# 
  2577     1D15                     	;# 
  2578     1D16                     	;# 
  2579     1D16                     	;# 
  2580     1D17                     	;# 
  2581     1D18                     	;# 
  2582     1D19                     	;# 
  2583     1D1A                     	;# 
  2584     1D1B                     	;# 
  2585     1D1B                     	;# 
  2586     1D1C                     	;# 
  2587     1D1D                     	;# 
  2588     1D1D                     	;# 
  2589     1D1E                     	;# 
  2590     1D1F                     	;# 
  2591     1D21                     	;# 
  2592     1D21                     	;# 
  2593     1D22                     	;# 
  2594     1D23                     	;# 
  2595     1D24                     	;# 
  2596     1D24                     	;# 
  2597     1D25                     	;# 
  2598     1D26                     	;# 
  2599     1D27                     	;# 
  2600     1D28                     	;# 
  2601     1D29                     	;# 
  2602     1D2A                     	;# 
  2603     1D2B                     	;# 
  2604     1D2C                     	;# 
  2605     1D2D                     	;# 
  2606     1D2E                     	;# 
  2607     1D2F                     	;# 
  2608     1D30                     	;# 
  2609     1D31                     	;# 
  2610     1D32                     	;# 
  2611     1D8C                     	;# 
  2612     1D8D                     	;# 
  2613     1D8E                     	;# 
  2614     1D8F                     	;# 
  2615     1D90                     	;# 
  2616     1D91                     	;# 
  2617     1D92                     	;# 
  2618     1D93                     	;# 
  2619     1D94                     	;# 
  2620     1D95                     	;# 
  2621     1D96                     	;# 
  2622     1D97                     	;# 
  2623     1D98                     	;# 
  2624     1D99                     	;# 
  2625     1D9A                     	;# 
  2626     1D9B                     	;# 
  2627     1D9C                     	;# 
  2628     1D9D                     	;# 
  2629     1D9E                     	;# 
  2630     1D9F                     	;# 
  2631     1DA0                     	;# 
  2632     1DA1                     	;# 
  2633     1DA2                     	;# 
  2634     1DA3                     	;# 
  2635     1DA4                     	;# 
  2636     1DA5                     	;# 
  2637     1DA6                     	;# 
  2638     1DA7                     	;# 
  2639     1DA8                     	;# 
  2640     1DA9                     	;# 
  2641     1DAA                     	;# 
  2642     1DAB                     	;# 
  2643     1DAC                     	;# 
  2644     1DAD                     	;# 
  2645     1DAE                     	;# 
  2646     1E0C                     	;# 
  2647     1E0D                     	;# 
  2648     1E0E                     	;# 
  2649     1E0F                     	;# 
  2650     1E10                     	;# 
  2651     1E11                     	;# 
  2652     1E12                     	;# 
  2653     1E19                     	;# 
  2654     1E1A                     	;# 
  2655     1E1B                     	;# 
  2656     1E1E                     	;# 
  2657     1E1F                     	;# 
  2658     1E39                     	;# 
  2659     1E3D                     	;# 
  2660     1E3E                     	;# 
  2661     1E3F                     	;# 
  2662     1E40                     	;# 
  2663     1E41                     	;# 
  2664     1E41                     	;# 
  2665     1E42                     	;# 
  2666     1E42                     	;# 
  2667     1E43                     	;# 
  2668     1E43                     	;# 
  2669     1E44                     	;# 
  2670     1E44                     	;# 
  2671     1E47                     	;# 
  2672     1E48                     	;# 
  2673     1E49                     	;# 
  2674     1E4A                     	;# 
  2675     1E4B                     	;# 
  2676     1E4C                     	;# 
  2677     1E50                     	;# 
  2678     1E8C                     	;# 
  2679     1E8D                     	;# 
  2680     1E8E                     	;# 
  2681     1E8F                     	;# 
  2682     1E90                     	;# 
  2683     1E91                     	;# 
  2684     1E92                     	;# 
  2685     1E93                     	;# 
  2686     1E96                     	;# 
  2687     1E97                     	;# 
  2688     1E98                     	;# 
  2689     1E99                     	;# 
  2690     1E9A                     	;# 
  2691     1E9B                     	;# 
  2692     1E9C                     	;# 
  2693     1E9D                     	;# 
  2694     1EA0                     	;# 
  2695     1EA1                     	;# 
  2696     1EA2                     	;# 
  2697     1EA3                     	;# 
  2698     1EA4                     	;# 
  2699     1EA5                     	;# 
  2700     1EA6                     	;# 
  2701     1EA7                     	;# 
  2702     1EAA                     	;# 
  2703     1EAB                     	;# 
  2704     1EAC                     	;# 
  2705     1EAD                     	;# 
  2706     1EAE                     	;# 
  2707     1EB4                     	;# 
  2708     1EB5                     	;# 
  2709     1EB6                     	;# 
  2710     1EB7                     	;# 
  2711     1EB8                     	;# 
  2712     1EB9                     	;# 
  2713     1EBA                     	;# 
  2714     1EBB                     	;# 
  2715     1EE3                     	;# 
  2716     1EE4                     	;# 
  2717     1EEB                     	;# 
  2718     1EEC                     	;# 
  2719     1EEE                     	;# 
  2720     1EEF                     	;# 
  2721     1F0C                     	;# 
  2722     1F0D                     	;# 
  2723     1F0E                     	;# 
  2724     1FE4                     	;# 
  2725     1FE5                     	;# 
  2726     1FE6                     	;# 
  2727     1FE7                     	;# 
  2728     1FE8                     	;# 
  2729     1FE8                     	;# 
  2730     1FE9                     	;# 
  2731     1FEA                     	;# 
  2732     1FEA                     	;# 
  2733     1FEB                     	;# 
  2734     1FED                     	;# 
  2735     1FEE                     	;# 
  2736     1FEF                     	;# 
  2737                           
  2738 ;; Function _INT_DefaultInterruptHandler is unused but had its address taken
  2739     0000                     
  2740 ;; Function _EUSART1_Deinitialize is unused but had its address taken
  2741     0000                     
  2742 ;; Function _EUSART1_TransmitDisable is unused but had its address taken
  2743     0000                     
  2744 ;; Function _EUSART1_AutoBaudSet is unused but had its address taken
  2745     0000                     
  2746 ;; Function _EUSART1_AutoBaudQuery is unused but had its address taken
  2747     0000                     
  2748 ;; Function _EUSART1_IsRxReady is unused but had its address taken
  2749     0000                     
  2750 ;; Function _EUSART1_IsTxReady is unused but had its address taken
  2751     0000                     
  2752 ;; Function _EUSART1_ErrorGet is unused but had its address taken
  2753     0000                     
  2754                           	psect	idataBANK0
  2755     016D                     __pidataBANK0:
  2756                           
  2757                           ;initializer for main@F8381
  2758     016D  3448               	retlw	72
  2759     016E  3465               	retlw	101
  2760     016F  346C               	retlw	108
  2761     0170  346C               	retlw	108
  2762     0171  346F               	retlw	111
  2763     0172  3420               	retlw	32
  2764     0173  3457               	retlw	87
  2765     0174  346F               	retlw	111
  2766     0175  3472               	retlw	114
  2767     0176  346C               	retlw	108
  2768     0177  3464               	retlw	100
  2769     0178  340D               	retlw	13
  2770     0179  340A               	retlw	10
  2771     017A  3400               	retlw	0
  2772                           
  2773                           	psect	stringtext1
  2774     00E0                     __pstringtext1:
  2775     00E0                     _UART1:
  2776     00E0  343A               	retlw	low _EUSART1_Initialize
  2777     00E1  3401               	retlw	high _EUSART1_Initialize
  2778     00E2  3400               	retlw	0
  2779     00E3  3400               	retlw	0
  2780     00E4  3410               	retlw	low _EUSART1_Read
  2781     00E5  3401               	retlw	high _EUSART1_Read
  2782     00E6  34BE               	retlw	low _EUSART1_Write
  2783     00E7  3401               	retlw	high _EUSART1_Write
  2784     00E8  3400               	retlw	0
  2785     00E9  3400               	retlw	0
  2786     00EA  3400               	retlw	0
  2787     00EB  3400               	retlw	0
  2788     00EC  34C6               	retlw	low _EUSART1_IsTxDone
  2789     00ED  3401               	retlw	high _EUSART1_IsTxDone
  2790     00EE  34CA               	retlw	low _EUSART1_TransmitEnable
  2791     00EF  3401               	retlw	high _EUSART1_TransmitEnable
  2792     00F0  3400               	retlw	0
  2793     00F1  3400               	retlw	0
  2794     00F2  3400               	retlw	0
  2795     00F3  3400               	retlw	0
  2796     00F4  3400               	retlw	0
  2797     00F5  3400               	retlw	0
  2798     00F6  3400               	retlw	0
  2799     00F7  3400               	retlw	0
  2800     00F8  3400               	retlw	0
  2801     00F9  3400               	retlw	0
  2802     00FA  3400               	retlw	0
  2803     00FB  3400               	retlw	0
  2804     00FC  3400               	retlw	0
  2805     00FD  3400               	retlw	0
  2806     00FE  3400               	retlw	0
  2807     00FF  3400               	retlw	0
  2808     0100  3400               	retlw	0
  2809     0101  3400               	retlw	0
  2810     0102  3400               	retlw	0
  2811     0103  3400               	retlw	0
  2812     0104  3400               	retlw	0
  2813     0105  3400               	retlw	0
  2814     0106  3400               	retlw	0
  2815     0107  3400               	retlw	0
  2816     0108  349E               	retlw	low _EUSART1_FramingErrorCallbackRegister
  2817     0109  3401               	retlw	high _EUSART1_FramingErrorCallbackRegister
  2818     010A  3493               	retlw	low _EUSART1_OverrunErrorCallbackRegister
  2819     010B  3401               	retlw	high _EUSART1_OverrunErrorCallbackRegister
  2820     010C  3400               	retlw	0
  2821     010D  3400               	retlw	0
  2822     010E  3400               	retlw	0
  2823     010F  3400               	retlw	0
  2824     0110                     __end_of_UART1:
  2825     0019                     _LATBbits	set	25
  2826     0016                     _TRISE	set	22
  2827     0015                     _TRISD	set	21
  2828     0014                     _TRISC	set	20
  2829     0013                     _TRISB	set	19
  2830     0012                     _TRISA	set	18
  2831     001C                     _LATE	set	28
  2832     001B                     _LATD	set	27
  2833     001A                     _LATC	set	26
  2834     0019                     _LATB	set	25
  2835     0018                     _LATA	set	24
  2836     000B                     _INTCONbits	set	11
  2837     008F                     _PIR3bits	set	143
  2838     0096                     _PIE0bits	set	150
  2839     008C                     _PIR0bits	set	140
  2840     0214                     _ACTCON	set	532
  2841     0212                     _OSCTUNE	set	530
  2842     0210                     _OSCSTAT	set	528
  2843     0213                     _OSCFRQ	set	531
  2844     0211                     _OSCEN	set	529
  2845     020F                     _OSCCON3	set	527
  2846     020E                     _OSCCON2	set	526
  2847     060D                     _TX1REG	set	1549
  2848     060C                     _RC1REG	set	1548
  2849     0612                     _BAUD1CONbits	set	1554
  2850     0611                     _TX1STAbits	set	1553
  2851     0610                     _RC1STAbits	set	1552
  2852     060F                     _SP1BRGH	set	1551
  2853     060E                     _SP1BRGL	set	1550
  2854     0611                     _TX1STA	set	1553
  2855     0610                     _RC1STA	set	1552
  2856     0612                     _BAUD1CON	set	1554
  2857     1DA2                     _RC6PPS	set	7586
  2858     1E41                     _RX1PPS	set	7745
  2859     1EBB                     _IOCEF	set	7867
  2860     1EBA                     _IOCEN	set	7866
  2861     1EB9                     _IOCEP	set	7865
  2862     1EA7                     _IOCCF	set	7847
  2863     1EA6                     _IOCCN	set	7846
  2864     1EA5                     _IOCCP	set	7845
  2865     1E9D                     _IOCBF	set	7837
  2866     1E9C                     _IOCBN	set	7836
  2867     1E9B                     _IOCBP	set	7835
  2868     1E93                     _IOCAF	set	7827
  2869     1E92                     _IOCAN	set	7826
  2870     1E91                     _IOCAP	set	7825
  2871     1EB8                     _INLVLE	set	7864
  2872     1EAE                     _INLVLD	set	7854
  2873     1EA4                     _INLVLC	set	7844
  2874     1E9A                     _INLVLB	set	7834
  2875     1E90                     _INLVLA	set	7824
  2876     1EB7                     _SLRCONE	set	7863
  2877     1EAD                     _SLRCOND	set	7853
  2878     1EA3                     _SLRCONC	set	7843
  2879     1E99                     _SLRCONB	set	7833
  2880     1E8F                     _SLRCONA	set	7823
  2881     1EB6                     _ODCONE	set	7862
  2882     1EAC                     _ODCOND	set	7852
  2883     1EA2                     _ODCONC	set	7842
  2884     1E98                     _ODCONB	set	7832
  2885     1E8E                     _ODCONA	set	7822
  2886     1EB5                     _WPUE	set	7861
  2887     1EAB                     _WPUD	set	7851
  2888     1EA1                     _WPUC	set	7841
  2889     1E97                     _WPUB	set	7831
  2890     1E8D                     _WPUA	set	7821
  2891     1EB4                     _ANSELE	set	7860
  2892     1EAA                     _ANSELD	set	7850
  2893     1EA0                     _ANSELC	set	7840
  2894     1E96                     _ANSELB	set	7830
  2895     1E8C                     _ANSELA	set	7820
  2896                           
  2897                           	psect	cinit
  2898     0016                     start_initialization:	
  2899                           ; #config settings
  2900                           
  2901     0016                     __initialization:
  2902                           
  2903                           ; Initialize objects allocated to BANK0
  2904     0016  306D               	movlw	low __pidataBANK0
  2905     0017  0084               	movwf	4
  2906     0018  3081               	movlw	(high __pidataBANK0)| (0+128)
  2907     0019  0085               	movwf	5
  2908     001A  3030               	movlw	low __pdataBANK0
  2909     001B  0086               	movwf	6
  2910     001C  3000               	movlw	high __pdataBANK0
  2911     001D  0087               	movwf	7
  2912     001E  300E               	movlw	14
  2913     001F  3181  21B3  3180   	fcall	init_ram
  2914                           
  2915                           ; Clear objects allocated to COMMON
  2916     0022  01F7               	clrf	__pbssCOMMON& (0+127)
  2917     0023  01F8               	clrf	(__pbssCOMMON+1)& (0+127)
  2918     0024  01F9               	clrf	(__pbssCOMMON+2)& (0+127)
  2919     0025  01FA               	clrf	(__pbssCOMMON+3)& (0+127)
  2920     0026  01FB               	clrf	(__pbssCOMMON+4)& (0+127)
  2921     0027  01FC               	clrf	(__pbssCOMMON+5)& (0+127)
  2922                           
  2923                           ; Clear objects allocated to BANK0
  2924     0028  01BE               	clrf	__pbssBANK0& (0+127)
  2925     0029  01BF               	clrf	(__pbssBANK0+1)& (0+127)
  2926     002A                     end_of_initialization:	
  2927                           ;End of C runtime variable initialization code
  2928                           
  2929     002A                     __end_of__initialization:
  2930     002A  107E               	bcf	int$flags,0	;clear compiler interrupt flag (level 1)
  2931     002B  0140               	movlb	0
  2932     002C  3180  282E         	ljmp	_main	;jump to C main() function
  2933                           
  2934                           	psect	bssCOMMON
  2935     0077                     __pbssCOMMON:
  2936     0077                     _EUSART1_OverrunErrorHandler:
  2937     0077                     	ds	2
  2938     0079                     _EUSART1_FramingErrorHandler:
  2939     0079                     	ds	2
  2940     007B                     _INT_InterruptHandler:
  2941     007B                     	ds	2
  2942                           
  2943                           	psect	bssBANK0
  2944     003E                     __pbssBANK0:
  2945     003E                     _eusart1RxLastError:
  2946     003E                     	ds	2
  2947                           
  2948                           	psect	dataBANK0
  2949     0030                     __pdataBANK0:
  2950     0030                     main@F8381:
  2951     0030                     	ds	14
  2952                           
  2953                           	psect	inittext
  2954     01B3                     init_ram:
  2955     01B3  00FE               	movwf	btemp
  2956     01B4                     initloop:
  2957     01B4  0012               	moviw fsr0++
  2958     01B5  001E               	movwi fsr1++
  2959     01B6  0BFE               	decfsz	btemp,f
  2960     01B7  29B4               	goto	initloop
  2961     01B8  3400               	retlw	0
  2962                           
  2963                           	psect	cstackCOMMON
  2964     0070                     __pcstackCOMMON:
  2965     0070                     ?_INT_SetInterruptHandler:
  2966     0070                     ?_PIN_MANAGER_IOC:	
  2967                           ; 1 bytes @ 0x0
  2968                           
  2969     0070                     ??_PIN_MANAGER_IOC:	
  2970                           ; 1 bytes @ 0x0
  2971                           
  2972     0070                     ?_EUSART1_Initialize:	
  2973                           ; 1 bytes @ 0x0
  2974                           
  2975     0070                     ?_EUSART1_Enable:	
  2976                           ; 1 bytes @ 0x0
  2977                           
  2978     0070                     ??_EUSART1_Enable:	
  2979                           ; 1 bytes @ 0x0
  2980                           
  2981     0070                     ?_EUSART1_TransmitEnable:	
  2982                           ; 1 bytes @ 0x0
  2983                           
  2984     0070                     ??_EUSART1_TransmitEnable:	
  2985                           ; 1 bytes @ 0x0
  2986                           
  2987     0070                     ?_EUSART1_ReceiveEnable:	
  2988                           ; 1 bytes @ 0x0
  2989                           
  2990     0070                     ??_EUSART1_ReceiveEnable:	
  2991                           ; 1 bytes @ 0x0
  2992                           
  2993     0070                     ?_EUSART1_Read:	
  2994                           ; 1 bytes @ 0x0
  2995                           
  2996     0070                     ??_EUSART1_Read:	
  2997                           ; 1 bytes @ 0x0
  2998                           
  2999     0070                     ?_EUSART1_Write:	
  3000                           ; 1 bytes @ 0x0
  3001                           
  3002     0070                     ?_EUSART1_IsTxDone:	
  3003                           ; 1 bytes @ 0x0
  3004                           
  3005     0070                     ??_EUSART1_IsTxDone:	
  3006                           ; 1 bytes @ 0x0
  3007                           
  3008     0070                     ?_EUSART1_FramingErrorCallbackRegister:	
  3009                           ; 1 bytes @ 0x0
  3010                           
  3011     0070                     ?_EUSART1_OverrunErrorCallbackRegister:	
  3012                           ; 1 bytes @ 0x0
  3013                           
  3014     0070                     ?_EUSART1_DefaultFramingErrorCallback:	
  3015                           ; 1 bytes @ 0x0
  3016                           
  3017     0070                     ??_EUSART1_DefaultFramingErrorCallback:	
  3018                           ; 1 bytes @ 0x0
  3019                           
  3020     0070                     ?_EUSART1_DefaultOverrunErrorCallback:	
  3021                           ; 1 bytes @ 0x0
  3022                           
  3023     0070                     ??_EUSART1_DefaultOverrunErrorCallback:	
  3024                           ; 1 bytes @ 0x0
  3025                           
  3026     0070                     ?_CLOCK_Initialize:	
  3027                           ; 1 bytes @ 0x0
  3028                           
  3029     0070                     ??_CLOCK_Initialize:	
  3030                           ; 1 bytes @ 0x0
  3031                           
  3032     0070                     ?_INTERRUPT_Initialize:	
  3033                           ; 1 bytes @ 0x0
  3034                           
  3035     0070                     ?_INTERRUPT_InterruptManager:	
  3036                           ; 1 bytes @ 0x0
  3037                           
  3038     0070                     ??_INTERRUPT_InterruptManager:	
  3039                           ; 1 bytes @ 0x0
  3040                           
  3041     0070                     ?_PIN_MANAGER_Initialize:	
  3042                           ; 1 bytes @ 0x0
  3043                           
  3044     0070                     ??_PIN_MANAGER_Initialize:	
  3045                           ; 1 bytes @ 0x0
  3046                           
  3047     0070                     ?_SYSTEM_Initialize:	
  3048                           ; 1 bytes @ 0x0
  3049                           
  3050     0070                     ?_strlen:	
  3051                           ; 1 bytes @ 0x0
  3052                           
  3053     0070                     ?_main:	
  3054                           ; 2 bytes @ 0x0
  3055                           
  3056     0070                     EUSART1_Write@txData:	
  3057                           ; 2 bytes @ 0x0
  3058                           
  3059     0070                     INT_SetInterruptHandler@InterruptHandler:	
  3060                           ; 1 bytes @ 0x0
  3061                           
  3062     0070                     EUSART1_FramingErrorCallbackRegister@callbackHandler:	
  3063                           ; 2 bytes @ 0x0
  3064                           
  3065     0070                     EUSART1_OverrunErrorCallbackRegister@callbackHandler:	
  3066                           ; 2 bytes @ 0x0
  3067                           
  3068                           
  3069                           ; 2 bytes @ 0x0
  3070     0070                     	ds	1
  3071     0071                     ??_EUSART1_Write:
  3072                           
  3073                           ; 1 bytes @ 0x1
  3074     0071                     	ds	1
  3075     0072                     ??_INT_SetInterruptHandler:
  3076     0072                     ??_EUSART1_Initialize:	
  3077                           ; 1 bytes @ 0x2
  3078                           
  3079     0072                     ??_strlen:	
  3080                           ; 1 bytes @ 0x2
  3081                           
  3082     0072                     ??_EUSART1_FramingErrorCallbackRegister:	
  3083                           ; 1 bytes @ 0x2
  3084                           
  3085     0072                     ??_EUSART1_OverrunErrorCallbackRegister:	
  3086                           ; 1 bytes @ 0x2
  3087                           
  3088     0072                     ??_INTERRUPT_Initialize:	
  3089                           ; 1 bytes @ 0x2
  3090                           
  3091     0072                     ??_SYSTEM_Initialize:	
  3092                           ; 1 bytes @ 0x2
  3093                           
  3094                           
  3095                           ; 1 bytes @ 0x2
  3096     0072                     	ds	1
  3097     0073                     strlen@a:
  3098                           
  3099                           ; 1 bytes @ 0x3
  3100     0073                     	ds	1
  3101     0074                     strlen@s:
  3102                           
  3103                           ; 1 bytes @ 0x4
  3104     0074                     	ds	1
  3105     0075                     ??_main:
  3106                           
  3107                           ; 1 bytes @ 0x5
  3108     0075                     	ds	2
  3109                           
  3110                           	psect	cstackBANK0
  3111     0020                     __pcstackBANK0:
  3112     0020                     main@msg:
  3113                           
  3114                           ; 14 bytes @ 0x0
  3115     0020                     	ds	14
  3116     002E                     main@i:
  3117                           
  3118                           ; 1 bytes @ 0xE
  3119     002E                     	ds	1
  3120     002F                     main@rec:
  3121                           
  3122                           ; 1 bytes @ 0xF
  3123     002F                     	ds	1
  3124                           
  3125                           	psect	maintext
  3126     002E                     __pmaintext:	
  3127 ;;
  3128 ;;Main: autosize = 0, tempsize = 2, incstack = 0, save=0
  3129 ;;
  3130 ;; *************** function _main *****************
  3131 ;; Defined at:
  3132 ;;		line 51 in file "main.c"
  3133 ;; Parameters:    Size  Location     Type
  3134 ;;		None
  3135 ;; Auto vars:     Size  Location     Type
  3136 ;;  i               1   14[BANK0 ] unsigned char 
  3137 ;;  rec             1   15[BANK0 ] unsigned char 
  3138 ;;  msg            14    0[BANK0 ] unsigned char [14]
  3139 ;;  lastr           1    0        unsigned char 
  3140 ;; Return value:  Size  Location     Type
  3141 ;;                  2  195[None  ] int 
  3142 ;; Registers used:
  3143 ;;		wreg, fsr0l, fsr0h, fsr1l, fsr1h, status,2, status,0, pclath, cstack
  3144 ;; Tracked objects:
  3145 ;;		On entry : B3F/0
  3146 ;;		On exit  : 0/0
  3147 ;;		Unchanged: 0/0
  3148 ;; Data sizes:     COMMON   BANK0   BANK1   BANK2   BANK3   BANK4   BANK5   BANK6   BANK7   BANK8   BANK9  BANK10  BANK1
      +1  BANK12  BANK13  BANK14  BANK15  BANK16  BANK17  BANK18  BANK19  BANK20  BANK21  BANK22  BANK23  BANK24  BANK25
  3149 ;;      Params:         0       0       0       0       0       0       0       0       0       0       0       0       
      +0       0       0       0       0       0       0       0       0       0       0       0       0       0       0
  3150 ;;      Locals:         0      16       0       0       0       0       0       0       0       0       0       0       
      +0       0       0       0       0       0       0       0       0       0       0       0       0       0       0
  3151 ;;      Temps:          2       0       0       0       0       0       0       0       0       0       0       0       
      +0       0       0       0       0       0       0       0       0       0       0       0       0       0       0
  3152 ;;      Totals:         2      16       0       0       0       0       0       0       0       0       0       0       
      +0       0       0       0       0       0       0       0       0       0       0       0       0       0       0
  3153 ;;Total ram usage:       18 bytes
  3154 ;; Hardware stack levels required when called: 5
  3155 ;; This function calls:
  3156 ;;		_EUSART1_Enable
  3157 ;;		_EUSART1_IsTxDone
  3158 ;;		_EUSART1_Read
  3159 ;;		_EUSART1_ReceiveEnable
  3160 ;;		_EUSART1_TransmitEnable
  3161 ;;		_EUSART1_Write
  3162 ;;		_SYSTEM_Initialize
  3163 ;;		_strlen
  3164 ;; This function is called by:
  3165 ;;		Startup code after reset
  3166 ;; This function uses a non-reentrant model
  3167 ;;
  3168                           
  3169     002E                     _main:	
  3170                           ;psect for function _main
  3171                           
  3172     002E                     l1324:	
  3173                           ;incstack = 0
  3174                           ; Regs used in _main: [wreg-fsr1h+status,2+status,0+pclath+cstack]
  3175                           
  3176                           
  3177                           ;main.c: 53:     SYSTEM_Initialize();
  3178     002E  3181  217B  3180   	fcall	_SYSTEM_Initialize
  3179     0031                     l1326:
  3180                           
  3181                           ;main.c: 54:     EUSART1_Enable();
  3182     0031  3181  21D0  3180   	fcall	_EUSART1_Enable
  3183     0034                     l1328:
  3184                           
  3185                           ;main.c: 55:     EUSART1_TransmitEnable();
  3186     0034  3181  21CA  3180   	fcall	_EUSART1_TransmitEnable
  3187     0037                     l1330:
  3188                           
  3189                           ;main.c: 56:     EUSART1_ReceiveEnable();
  3190     0037  3181  21CD  3180   	fcall	_EUSART1_ReceiveEnable
  3191     003A                     l1332:
  3192                           
  3193                           ;main.c: 73:     char msg[] = "Hello World\r\n";
  3194     003A  3030               	movlw	low main@F8381
  3195     003B  0086               	movwf	6
  3196     003C  3000               	movlw	high main@F8381
  3197     003D  0087               	movwf	7
  3198     003E  3020               	movlw	low main@msg
  3199     003F  0084               	movwf	4
  3200     0040  3000               	movlw	high main@msg
  3201     0041  0085               	movwf	5
  3202     0042  300E               	movlw	14
  3203     0043  00F5               	movwf	??_main
  3204     0044                     u270:
  3205     0044  0016               	moviw fsr1++
  3206     0045  001A               	movwi fsr0++
  3207     0046  0BF5               	decfsz	??_main,f
  3208     0047  2844               	goto	u270
  3209     0048                     l1334:
  3210     0048                     l1336:
  3211                           
  3212                           ;main.c: 76:     {;main.c: 84:         uint8_t rec = EUSART1_Read();
  3213     0048  3181  2110  3180   	fcall	_EUSART1_Read
  3214     004B  0140               	movlb	0	; select bank0
  3215     004C  00AF               	movwf	main@rec
  3216     004D                     l1338:
  3217                           
  3218                           ;main.c: 85:         if(rec == 'H') {
  3219     004D  3048               	movlw	72
  3220     004E  062F               	xorwf	main@rec,w
  3221     004F  1D03               	btfss	3,2
  3222     0050  2852               	goto	u281
  3223     0051  2853               	goto	u280
  3224     0052                     u281:
  3225     0052  2854               	goto	l1340
  3226     0053                     u280:
  3227     0053                     l200:	
  3228                           ;main.c: 86:             do { LATBbits.LATB0 = 1; } while(0);
  3229                           
  3230     0053  1419               	bsf	25,0	;volatile
  3231     0054                     l1340:
  3232                           
  3233                           ;main.c: 89:         if(rec == 'L') {
  3234     0054  304C               	movlw	76
  3235     0055  062F               	xorwf	main@rec,w
  3236     0056  1D03               	btfss	3,2
  3237     0057  2859               	goto	u291
  3238     0058  285A               	goto	u290
  3239     0059                     u291:
  3240     0059  285B               	goto	l1342
  3241     005A                     u290:
  3242     005A                     l203:	
  3243                           ;main.c: 90:             do { LATBbits.LATB0 = 0; } while(0);
  3244                           
  3245     005A  1019               	bcf	25,0	;volatile
  3246     005B                     l1342:
  3247                           
  3248                           ;main.c: 93:         if(rec == 'R') {
  3249     005B  3052               	movlw	82
  3250     005C  062F               	xorwf	main@rec,w
  3251     005D  1D03               	btfss	3,2
  3252     005E  2860               	goto	u301
  3253     005F  2861               	goto	u300
  3254     0060                     u301:
  3255     0060  2848               	goto	l1336
  3256     0061                     u300:
  3257     0061                     l1344:
  3258                           
  3259                           ;main.c: 94:             for(uint8_t i = 0; i < strlen(msg); i++) {
  3260     0061  01AE               	clrf	main@i
  3261     0062  287E               	goto	l1354
  3262     0063                     l1346:
  3263                           
  3264                           ;main.c: 95:                 EUSART1_Write(msg[i]);
  3265     0063  082E               	movf	main@i,w
  3266     0064  3E20               	addlw	(low (main@msg| 0))& (0+255)
  3267     0065  0086               	movwf	6
  3268     0066  0187               	clrf	7
  3269     0067  0801               	movf	1,w
  3270     0068  00F0               	movwf	EUSART1_Write@txData
  3271     0069  3181  21BE  3180   	fcall	_EUSART1_Write
  3272                           
  3273                           ;main.c: 96:                 while(!EUSART1_IsTxDone()){_delay((unsigned long)((1)*(1000
      +                          000/4000.0)));}
  3274     006C  2871               	goto	l1350
  3275     006D                     l1348:
  3276     006D  3053               	movlw	83
  3277     006E                     u337:
  3278     006E  0B89               	decfsz	9,f
  3279     006F  286E               	goto	u337
  3280     0070  0000               	nop
  3281     0071                     l1350:
  3282     0071  3181  21C6  3180   	fcall	_EUSART1_IsTxDone
  3283     0074  3A00               	xorlw	0
  3284     0075  1903               	skipnz
  3285     0076  2878               	goto	u311
  3286     0077  2879               	goto	u310
  3287     0078                     u311:
  3288     0078  286D               	goto	l1348
  3289     0079                     u310:
  3290     0079                     l1352:
  3291                           
  3292                           ;main.c: 97:             }
  3293     0079  3001               	movlw	1
  3294     007A  00F5               	movwf	??_main
  3295     007B  0875               	movf	??_main,w
  3296     007C  0140               	movlb	0	; select bank0
  3297     007D  07AE               	addwf	main@i,f
  3298     007E                     l1354:
  3299     007E  3020               	movlw	(low (main@msg| 0))& (0+255)
  3300     007F  3181  2156  3180   	fcall	_strlen
  3301     0082  0140               	movlb	0	; select bank0
  3302     0083  082E               	movf	main@i,w
  3303     0084  00F5               	movwf	??_main
  3304     0085  01F6               	clrf	??_main+1
  3305     0086  0871               	movf	?_strlen+1,w
  3306     0087  0276               	subwf	??_main+1,w
  3307     0088  1D03               	skipz
  3308     0089  288C               	goto	u325
  3309     008A  0870               	movf	?_strlen,w
  3310     008B  0275               	subwf	??_main,w
  3311     008C                     u325:
  3312     008C  1C03               	skipc
  3313     008D  288F               	goto	u321
  3314     008E  2890               	goto	u320
  3315     008F                     u321:
  3316     008F  2863               	goto	l1346
  3317     0090                     u320:
  3318     0090  2848               	goto	l1336
  3319     0091  3180  2814         	ljmp	start
  3320     0093                     __end_of_main:
  3321                           
  3322                           	psect	text1
  3323     0156                     __ptext1:	
  3324 ;; *************** function _strlen *****************
  3325 ;; Defined at:
  3326 ;;		line 5 in file "C:\Program Files\Microchip\xc8\v2.41\pic\sources\c99\common\strlen.c"
  3327 ;; Parameters:    Size  Location     Type
  3328 ;;  s               1    wreg     PTR const unsigned char 
  3329 ;;		 -> main@msg(14), 
  3330 ;; Auto vars:     Size  Location     Type
  3331 ;;  s               1    4[COMMON] PTR const unsigned char 
  3332 ;;		 -> main@msg(14), 
  3333 ;;  a               1    3[COMMON] PTR const unsigned char 
  3334 ;;		 -> main@msg(14), 
  3335 ;; Return value:  Size  Location     Type
  3336 ;;                  2    0[COMMON] unsigned int 
  3337 ;; Registers used:
  3338 ;;		wreg, fsr1l, fsr1h, status,2, status,0
  3339 ;; Tracked objects:
  3340 ;;		On entry : 0/0
  3341 ;;		On exit  : 0/0
  3342 ;;		Unchanged: 0/0
  3343 ;; Data sizes:     COMMON   BANK0   BANK1   BANK2   BANK3   BANK4   BANK5   BANK6   BANK7   BANK8   BANK9  BANK10  BANK1
      +1  BANK12  BANK13  BANK14  BANK15  BANK16  BANK17  BANK18  BANK19  BANK20  BANK21  BANK22  BANK23  BANK24  BANK25
  3344 ;;      Params:         2       0       0       0       0       0       0       0       0       0       0       0       
      +0       0       0       0       0       0       0       0       0       0       0       0       0       0       0
  3345 ;;      Locals:         2       0       0       0       0       0       0       0       0       0       0       0       
      +0       0       0       0       0       0       0       0       0       0       0       0       0       0       0
  3346 ;;      Temps:          1       0       0       0       0       0       0       0       0       0       0       0       
      +0       0       0       0       0       0       0       0       0       0       0       0       0       0       0
  3347 ;;      Totals:         5       0       0       0       0       0       0       0       0       0       0       0       
      +0       0       0       0       0       0       0       0       0       0       0       0       0       0       0
  3348 ;;Total ram usage:        5 bytes
  3349 ;; Hardware stack levels used: 1
  3350 ;; Hardware stack levels required when called: 2
  3351 ;; This function calls:
  3352 ;;		Nothing
  3353 ;; This function is called by:
  3354 ;;		_main
  3355 ;; This function uses a non-reentrant model
  3356 ;;
  3357                           
  3358     0156                     _strlen:	
  3359                           ;psect for function _strlen
  3360                           
  3361                           
  3362                           ;incstack = 0
  3363                           ; Regs used in _strlen: [wreg+fsr1l+fsr1h+status,2+status,0]
  3364                           ;strlen@s stored from wreg
  3365     0156  00F4               	movwf	strlen@s
  3366     0157                     l1314:
  3367     0157  0874               	movf	strlen@s,w
  3368     0158  00F3               	movwf	strlen@a
  3369     0159  295E               	goto	l1318
  3370     015A                     l1316:
  3371     015A  3001               	movlw	1
  3372     015B  00F2               	movwf	??_strlen
  3373     015C  0872               	movf	??_strlen,w
  3374     015D  07F4               	addwf	strlen@s,f
  3375     015E                     l1318:
  3376     015E  0874               	movf	strlen@s,w
  3377     015F  0086               	movwf	6
  3378     0160  0187               	clrf	7
  3379     0161  0801               	movf	1,w
  3380     0162  1D03               	btfss	3,2
  3381     0163  2965               	goto	u261
  3382     0164  2966               	goto	u260
  3383     0165                     u261:
  3384     0165  295A               	goto	l1316
  3385     0166                     u260:
  3386     0166                     l1320:
  3387     0166  0873               	movf	strlen@a,w
  3388     0167  0274               	subwf	strlen@s,w
  3389     0168  00F0               	movwf	?_strlen
  3390     0169  01F1               	clrf	?_strlen+1
  3391     016A  1BF0               	btfsc	?_strlen,7
  3392     016B  03F1               	decf	?_strlen+1,f
  3393     016C                     l972:
  3394     016C  0008               	return
  3395     016D                     __end_of_strlen:
  3396                           
  3397                           	psect	text2
  3398     017B                     __ptext2:	
  3399 ;; *************** function _SYSTEM_Initialize *****************
  3400 ;; Defined at:
  3401 ;;		line 37 in file "mcc_generated_files/system/src/system.c"
  3402 ;; Parameters:    Size  Location     Type
  3403 ;;		None
  3404 ;; Auto vars:     Size  Location     Type
  3405 ;;		None
  3406 ;; Return value:  Size  Location     Type
  3407 ;;                  1    wreg      void 
  3408 ;; Registers used:
  3409 ;;		wreg, status,2, status,0, pclath, cstack
  3410 ;; Tracked objects:
  3411 ;;		On entry : 0/0
  3412 ;;		On exit  : 0/0
  3413 ;;		Unchanged: 0/0
  3414 ;; Data sizes:     COMMON   BANK0   BANK1   BANK2   BANK3   BANK4   BANK5   BANK6   BANK7   BANK8   BANK9  BANK10  BANK1
      +1  BANK12  BANK13  BANK14  BANK15  BANK16  BANK17  BANK18  BANK19  BANK20  BANK21  BANK22  BANK23  BANK24  BANK25
  3415 ;;      Params:         0       0       0       0       0       0       0       0       0       0       0       0       
      +0       0       0       0       0       0       0       0       0       0       0       0       0       0       0
  3416 ;;      Locals:         0       0       0       0       0       0       0       0       0       0       0       0       
      +0       0       0       0       0       0       0       0       0       0       0       0       0       0       0
  3417 ;;      Temps:          0       0       0       0       0       0       0       0       0       0       0       0       
      +0       0       0       0       0       0       0       0       0       0       0       0       0       0       0
  3418 ;;      Totals:         0       0       0       0       0       0       0       0       0       0       0       0       
      +0       0       0       0       0       0       0       0       0       0       0       0       0       0       0
  3419 ;;Total ram usage:        0 bytes
  3420 ;; Hardware stack levels used: 1
  3421 ;; Hardware stack levels required when called: 4
  3422 ;; This function calls:
  3423 ;;		_CLOCK_Initialize
  3424 ;;		_EUSART1_Initialize
  3425 ;;		_INTERRUPT_Initialize
  3426 ;;		_PIN_MANAGER_Initialize
  3427 ;; This function is called by:
  3428 ;;		_main
  3429 ;; This function uses a non-reentrant model
  3430 ;;
  3431                           
  3432     017B                     _SYSTEM_Initialize:	
  3433                           ;psect for function _SYSTEM_Initialize
  3434                           
  3435     017B                     l1278:	
  3436                           ;incstack = 0
  3437                           ; Regs used in _SYSTEM_Initialize: [wreg+status,2+status,0+pclath+cstack]
  3438                           
  3439                           
  3440                           ;mcc_generated_files/system/src/system.c: 39:     CLOCK_Initialize();
  3441     017B  3181  21A9  3181   	fcall	_CLOCK_Initialize
  3442                           
  3443                           ;mcc_generated_files/system/src/system.c: 40:     PIN_MANAGER_Initialize();
  3444     017E  3180  2093  3181   	fcall	_PIN_MANAGER_Initialize
  3445                           
  3446                           ;mcc_generated_files/system/src/system.c: 41:     EUSART1_Initialize();
  3447     0181  3181  213A  3181   	fcall	_EUSART1_Initialize
  3448                           
  3449                           ;mcc_generated_files/system/src/system.c: 42:     INTERRUPT_Initialize();
  3450     0184  3181  2188  3181   	fcall	_INTERRUPT_Initialize
  3451     0187                     l171:
  3452     0187  0008               	return
  3453     0188                     __end_of_SYSTEM_Initialize:
  3454                           
  3455                           	psect	text3
  3456     0093                     __ptext3:	
  3457 ;; *************** function _PIN_MANAGER_Initialize *****************
  3458 ;; Defined at:
  3459 ;;		line 38 in file "mcc_generated_files/system/src/pins.c"
  3460 ;; Parameters:    Size  Location     Type
  3461 ;;		None
  3462 ;; Auto vars:     Size  Location     Type
  3463 ;;		None
  3464 ;; Return value:  Size  Location     Type
  3465 ;;                  1    wreg      void 
  3466 ;; Registers used:
  3467 ;;		wreg, status,2
  3468 ;; Tracked objects:
  3469 ;;		On entry : 0/0
  3470 ;;		On exit  : 0/0
  3471 ;;		Unchanged: 0/0
  3472 ;; Data sizes:     COMMON   BANK0   BANK1   BANK2   BANK3   BANK4   BANK5   BANK6   BANK7   BANK8   BANK9  BANK10  BANK1
      +1  BANK12  BANK13  BANK14  BANK15  BANK16  BANK17  BANK18  BANK19  BANK20  BANK21  BANK22  BANK23  BANK24  BANK25
  3473 ;;      Params:         0       0       0       0       0       0       0       0       0       0       0       0       
      +0       0       0       0       0       0       0       0       0       0       0       0       0       0       0
  3474 ;;      Locals:         0       0       0       0       0       0       0       0       0       0       0       0       
      +0       0       0       0       0       0       0       0       0       0       0       0       0       0       0
  3475 ;;      Temps:          0       0       0       0       0       0       0       0       0       0       0       0       
      +0       0       0       0       0       0       0       0       0       0       0       0       0       0       0
  3476 ;;      Totals:         0       0       0       0       0       0       0       0       0       0       0       0       
      +0       0       0       0       0       0       0       0       0       0       0       0       0       0       0
  3477 ;;Total ram usage:        0 bytes
  3478 ;; Hardware stack levels used: 1
  3479 ;; Hardware stack levels required when called: 2
  3480 ;; This function calls:
  3481 ;;		Nothing
  3482 ;; This function is called by:
  3483 ;;		_SYSTEM_Initialize
  3484 ;; This function uses a non-reentrant model
  3485 ;;
  3486                           
  3487     0093                     _PIN_MANAGER_Initialize:	
  3488                           ;psect for function _PIN_MANAGER_Initialize
  3489                           
  3490     0093                     l1220:	
  3491                           ;incstack = 0
  3492                           ; Regs used in _PIN_MANAGER_Initialize: [wreg+status,2]
  3493                           
  3494                           
  3495                           ;mcc_generated_files/system/src/pins.c: 43:     LATA = 0x0;
  3496     0093  0140               	movlb	0	; select bank0
  3497     0094  0198               	clrf	24	;volatile
  3498                           
  3499                           ;mcc_generated_files/system/src/pins.c: 44:     LATB = 0x0;
  3500     0095  0199               	clrf	25	;volatile
  3501                           
  3502                           ;mcc_generated_files/system/src/pins.c: 45:     LATC = 0x0;
  3503     0096  019A               	clrf	26	;volatile
  3504                           
  3505                           ;mcc_generated_files/system/src/pins.c: 46:     LATD = 0x0;
  3506     0097  019B               	clrf	27	;volatile
  3507                           
  3508                           ;mcc_generated_files/system/src/pins.c: 47:     LATE = 0x0;
  3509     0098  019C               	clrf	28	;volatile
  3510     0099                     l1222:
  3511                           
  3512                           ;mcc_generated_files/system/src/pins.c: 52:     TRISA = 0xFF;
  3513     0099  30FF               	movlw	255
  3514     009A  0092               	movwf	18	;volatile
  3515     009B                     l1224:
  3516                           
  3517                           ;mcc_generated_files/system/src/pins.c: 53:     TRISB = 0xFE;
  3518     009B  30FE               	movlw	254
  3519     009C  0093               	movwf	19	;volatile
  3520     009D                     l1226:
  3521                           
  3522                           ;mcc_generated_files/system/src/pins.c: 54:     TRISC = 0xBF;
  3523     009D  30BF               	movlw	191
  3524     009E  0094               	movwf	20	;volatile
  3525     009F                     l1228:
  3526                           
  3527                           ;mcc_generated_files/system/src/pins.c: 55:     TRISD = 0xFF;
  3528     009F  30FF               	movlw	255
  3529     00A0  0095               	movwf	21	;volatile
  3530     00A1                     l1230:
  3531                           
  3532                           ;mcc_generated_files/system/src/pins.c: 56:     TRISE = 0xF;
  3533     00A1  300F               	movlw	15
  3534     00A2  0096               	movwf	22	;volatile
  3535     00A3                     l1232:
  3536                           
  3537                           ;mcc_generated_files/system/src/pins.c: 61:     ANSELA = 0xFF;
  3538     00A3  30FF               	movlw	255
  3539     00A4  017D               	movlb	61	; select bank61
  3540     00A5  008C               	movwf	12	;volatile
  3541     00A6                     l1234:
  3542                           
  3543                           ;mcc_generated_files/system/src/pins.c: 62:     ANSELB = 0xFE;
  3544     00A6  30FE               	movlw	254
  3545     00A7  0096               	movwf	22	;volatile
  3546     00A8                     l1236:
  3547                           
  3548                           ;mcc_generated_files/system/src/pins.c: 63:     ANSELC = 0x3F;
  3549     00A8  303F               	movlw	63
  3550     00A9  00A0               	movwf	32	;volatile
  3551     00AA                     l1238:
  3552                           
  3553                           ;mcc_generated_files/system/src/pins.c: 64:     ANSELD = 0xFF;
  3554     00AA  30FF               	movlw	255
  3555     00AB  00AA               	movwf	42	;volatile
  3556     00AC                     l1240:
  3557                           
  3558                           ;mcc_generated_files/system/src/pins.c: 65:     ANSELE = 0x7;
  3559     00AC  3007               	movlw	7
  3560     00AD  00B4               	movwf	52	;volatile
  3561                           
  3562                           ;mcc_generated_files/system/src/pins.c: 70:     WPUA = 0x0;
  3563     00AE  018D               	clrf	13	;volatile
  3564                           
  3565                           ;mcc_generated_files/system/src/pins.c: 71:     WPUB = 0x0;
  3566     00AF  0197               	clrf	23	;volatile
  3567                           
  3568                           ;mcc_generated_files/system/src/pins.c: 72:     WPUC = 0x0;
  3569     00B0  01A1               	clrf	33	;volatile
  3570                           
  3571                           ;mcc_generated_files/system/src/pins.c: 73:     WPUD = 0x0;
  3572     00B1  01AB               	clrf	43	;volatile
  3573                           
  3574                           ;mcc_generated_files/system/src/pins.c: 74:     WPUE = 0x0;
  3575     00B2  01B5               	clrf	53	;volatile
  3576                           
  3577                           ;mcc_generated_files/system/src/pins.c: 80:     ODCONA = 0x0;
  3578     00B3  018E               	clrf	14	;volatile
  3579                           
  3580                           ;mcc_generated_files/system/src/pins.c: 81:     ODCONB = 0x0;
  3581     00B4  0198               	clrf	24	;volatile
  3582                           
  3583                           ;mcc_generated_files/system/src/pins.c: 82:     ODCONC = 0x0;
  3584     00B5  01A2               	clrf	34	;volatile
  3585                           
  3586                           ;mcc_generated_files/system/src/pins.c: 83:     ODCOND = 0x0;
  3587     00B6  01AC               	clrf	44	;volatile
  3588                           
  3589                           ;mcc_generated_files/system/src/pins.c: 84:     ODCONE = 0x0;
  3590     00B7  01B6               	clrf	54	;volatile
  3591     00B8                     l1242:
  3592                           
  3593                           ;mcc_generated_files/system/src/pins.c: 88:     SLRCONA = 0xFF;
  3594     00B8  30FF               	movlw	255
  3595     00B9  008F               	movwf	15	;volatile
  3596     00BA                     l1244:
  3597                           
  3598                           ;mcc_generated_files/system/src/pins.c: 89:     SLRCONB = 0xFF;
  3599     00BA  30FF               	movlw	255
  3600     00BB  0099               	movwf	25	;volatile
  3601     00BC                     l1246:
  3602                           
  3603                           ;mcc_generated_files/system/src/pins.c: 90:     SLRCONC = 0xFF;
  3604     00BC  30FF               	movlw	255
  3605     00BD  00A3               	movwf	35	;volatile
  3606     00BE                     l1248:
  3607                           
  3608                           ;mcc_generated_files/system/src/pins.c: 91:     SLRCOND = 0xFF;
  3609     00BE  30FF               	movlw	255
  3610     00BF  00AD               	movwf	45	;volatile
  3611     00C0                     l1250:
  3612                           
  3613                           ;mcc_generated_files/system/src/pins.c: 92:     SLRCONE = 0x7;
  3614     00C0  3007               	movlw	7
  3615     00C1  00B7               	movwf	55	;volatile
  3616     00C2                     l1252:
  3617                           
  3618                           ;mcc_generated_files/system/src/pins.c: 96:     INLVLA = 0xFF;
  3619     00C2  30FF               	movlw	255
  3620     00C3  0090               	movwf	16	;volatile
  3621     00C4                     l1254:
  3622                           
  3623                           ;mcc_generated_files/system/src/pins.c: 97:     INLVLB = 0xFF;
  3624     00C4  30FF               	movlw	255
  3625     00C5  009A               	movwf	26	;volatile
  3626     00C6                     l1256:
  3627                           
  3628                           ;mcc_generated_files/system/src/pins.c: 98:     INLVLC = 0xFF;
  3629     00C6  30FF               	movlw	255
  3630     00C7  00A4               	movwf	36	;volatile
  3631     00C8                     l1258:
  3632                           
  3633                           ;mcc_generated_files/system/src/pins.c: 99:     INLVLD = 0xFF;
  3634     00C8  30FF               	movlw	255
  3635     00C9  00AE               	movwf	46	;volatile
  3636     00CA                     l1260:
  3637                           
  3638                           ;mcc_generated_files/system/src/pins.c: 100:     INLVLE = 0xF;
  3639     00CA  300F               	movlw	15
  3640     00CB  00B8               	movwf	56	;volatile
  3641     00CC                     l1262:
  3642                           
  3643                           ;mcc_generated_files/system/src/pins.c: 105:     RX1PPS = 0x17;
  3644     00CC  3017               	movlw	23
  3645     00CD  017C               	movlb	60	; select bank60
  3646     00CE  00C1               	movwf	65	;volatile
  3647     00CF                     l1264:
  3648                           
  3649                           ;mcc_generated_files/system/src/pins.c: 106:     RC6PPS = 0x0E;
  3650     00CF  300E               	movlw	14
  3651     00D0  017B               	movlb	59	; select bank59
  3652     00D1  00A2               	movwf	34	;volatile
  3653                           
  3654                           ;mcc_generated_files/system/src/pins.c: 115:     IOCAP = 0x0;
  3655     00D2  017D               	movlb	61	; select bank61
  3656     00D3  0191               	clrf	17	;volatile
  3657                           
  3658                           ;mcc_generated_files/system/src/pins.c: 116:     IOCAN = 0x0;
  3659     00D4  0192               	clrf	18	;volatile
  3660                           
  3661                           ;mcc_generated_files/system/src/pins.c: 117:     IOCAF = 0x0;
  3662     00D5  0193               	clrf	19	;volatile
  3663                           
  3664                           ;mcc_generated_files/system/src/pins.c: 118:     IOCBP = 0x0;
  3665     00D6  019B               	clrf	27	;volatile
  3666                           
  3667                           ;mcc_generated_files/system/src/pins.c: 119:     IOCBN = 0x0;
  3668     00D7  019C               	clrf	28	;volatile
  3669                           
  3670                           ;mcc_generated_files/system/src/pins.c: 120:     IOCBF = 0x0;
  3671     00D8  019D               	clrf	29	;volatile
  3672                           
  3673                           ;mcc_generated_files/system/src/pins.c: 121:     IOCCP = 0x0;
  3674     00D9  01A5               	clrf	37	;volatile
  3675                           
  3676                           ;mcc_generated_files/system/src/pins.c: 122:     IOCCN = 0x0;
  3677     00DA  01A6               	clrf	38	;volatile
  3678                           
  3679                           ;mcc_generated_files/system/src/pins.c: 123:     IOCCF = 0x0;
  3680     00DB  01A7               	clrf	39	;volatile
  3681                           
  3682                           ;mcc_generated_files/system/src/pins.c: 124:     IOCEP = 0x0;
  3683     00DC  01B9               	clrf	57	;volatile
  3684                           
  3685                           ;mcc_generated_files/system/src/pins.c: 125:     IOCEN = 0x0;
  3686     00DD  01BA               	clrf	58	;volatile
  3687                           
  3688                           ;mcc_generated_files/system/src/pins.c: 126:     IOCEF = 0x0;
  3689     00DE  01BB               	clrf	59	;volatile
  3690     00DF                     l157:
  3691     00DF  0008               	return
  3692     00E0                     __end_of_PIN_MANAGER_Initialize:
  3693                           
  3694                           	psect	text4
  3695     0188                     __ptext4:	
  3696 ;; *************** function _INTERRUPT_Initialize *****************
  3697 ;; Defined at:
  3698 ;;		line 40 in file "mcc_generated_files/system/src/interrupt.c"
  3699 ;; Parameters:    Size  Location     Type
  3700 ;;		None
  3701 ;; Auto vars:     Size  Location     Type
  3702 ;;		None
  3703 ;; Return value:  Size  Location     Type
  3704 ;;                  1    wreg      void 
  3705 ;; Registers used:
  3706 ;;		wreg, status,2, status,0, pclath, cstack
  3707 ;; Tracked objects:
  3708 ;;		On entry : 0/0
  3709 ;;		On exit  : 0/0
  3710 ;;		Unchanged: 0/0
  3711 ;; Data sizes:     COMMON   BANK0   BANK1   BANK2   BANK3   BANK4   BANK5   BANK6   BANK7   BANK8   BANK9  BANK10  BANK1
      +1  BANK12  BANK13  BANK14  BANK15  BANK16  BANK17  BANK18  BANK19  BANK20  BANK21  BANK22  BANK23  BANK24  BANK25
  3712 ;;      Params:         0       0       0       0       0       0       0       0       0       0       0       0       
      +0       0       0       0       0       0       0       0       0       0       0       0       0       0       0
  3713 ;;      Locals:         0       0       0       0       0       0       0       0       0       0       0       0       
      +0       0       0       0       0       0       0       0       0       0       0       0       0       0       0
  3714 ;;      Temps:          0       0       0       0       0       0       0       0       0       0       0       0       
      +0       0       0       0       0       0       0       0       0       0       0       0       0       0       0
  3715 ;;      Totals:         0       0       0       0       0       0       0       0       0       0       0       0       
      +0       0       0       0       0       0       0       0       0       0       0       0       0       0       0
  3716 ;;Total ram usage:        0 bytes
  3717 ;; Hardware stack levels used: 1
  3718 ;; Hardware stack levels required when called: 3
  3719 ;; This function calls:
  3720 ;;		_INT_SetInterruptHandler
  3721 ;; This function is called by:
  3722 ;;		_SYSTEM_Initialize
  3723 ;; This function uses a non-reentrant model
  3724 ;;
  3725                           
  3726     0188                     _INTERRUPT_Initialize:	
  3727                           ;psect for function _INTERRUPT_Initialize
  3728                           
  3729     0188                     l1216:	
  3730                           ;incstack = 0
  3731                           ; Regs used in _INTERRUPT_Initialize: [wreg+status,2+status,0+pclath+cstack]
  3732                           
  3733                           
  3734                           ;mcc_generated_files/system/src/interrupt.c: 44:     (PIR0bits.INTF = 0);
  3735     0188  0141               	movlb	1	; select bank1
  3736     0189  100C               	bcf	12,0	;volatile
  3737                           
  3738                           ;mcc_generated_files/system/src/interrupt.c: 45:     (INTCONbits.INTEDG = 1);
  3739     018A  140B               	bsf	11,0	;volatile
  3740     018B                     l1218:
  3741                           
  3742                           ;mcc_generated_files/system/src/interrupt.c: 47:     INT_SetInterruptHandler(INT_Default
      +                          InterruptHandler);
  3743     018B  3000               	movlw	0
  3744     018C  00F0               	movwf	INT_SetInterruptHandler@InterruptHandler
  3745     018D  3000               	movlw	0
  3746     018E  00F1               	movwf	INT_SetInterruptHandler@InterruptHandler+1
  3747     018F  3181  21B9  3181   	fcall	_INT_SetInterruptHandler
  3748     0192                     l36:
  3749     0192  0008               	return
  3750     0193                     __end_of_INTERRUPT_Initialize:
  3751                           
  3752                           	psect	text5
  3753     01B9                     __ptext5:	
  3754 ;; *************** function _INT_SetInterruptHandler *****************
  3755 ;; Defined at:
  3756 ;;		line 90 in file "mcc_generated_files/system/src/interrupt.c"
  3757 ;; Parameters:    Size  Location     Type
  3758 ;;  InterruptHan    2    0[COMMON] PTR FTN()void 
  3759 ;;		 -> INT_DefaultInterruptHandler(1), 
  3760 ;; Auto vars:     Size  Location     Type
  3761 ;;		None
  3762 ;; Return value:  Size  Location     Type
  3763 ;;                  1    wreg      void 
  3764 ;; Registers used:
  3765 ;;		wreg
  3766 ;; Tracked objects:
  3767 ;;		On entry : 0/0
  3768 ;;		On exit  : 0/0
  3769 ;;		Unchanged: 0/0
  3770 ;; Data sizes:     COMMON   BANK0   BANK1   BANK2   BANK3   BANK4   BANK5   BANK6   BANK7   BANK8   BANK9  BANK10  BANK1
      +1  BANK12  BANK13  BANK14  BANK15  BANK16  BANK17  BANK18  BANK19  BANK20  BANK21  BANK22  BANK23  BANK24  BANK25
  3771 ;;      Params:         2       0       0       0       0       0       0       0       0       0       0       0       
      +0       0       0       0       0       0       0       0       0       0       0       0       0       0       0
  3772 ;;      Locals:         0       0       0       0       0       0       0       0       0       0       0       0       
      +0       0       0       0       0       0       0       0       0       0       0       0       0       0       0
  3773 ;;      Temps:          0       0       0       0       0       0       0       0       0       0       0       0       
      +0       0       0       0       0       0       0       0       0       0       0       0       0       0       0
  3774 ;;      Totals:         2       0       0       0       0       0       0       0       0       0       0       0       
      +0       0       0       0       0       0       0       0       0       0       0       0       0       0       0
  3775 ;;Total ram usage:        2 bytes
  3776 ;; Hardware stack levels used: 1
  3777 ;; Hardware stack levels required when called: 2
  3778 ;; This function calls:
  3779 ;;		Nothing
  3780 ;; This function is called by:
  3781 ;;		_INTERRUPT_Initialize
  3782 ;; This function uses a non-reentrant model
  3783 ;;
  3784                           
  3785     01B9                     _INT_SetInterruptHandler:	
  3786                           ;psect for function _INT_SetInterruptHandler
  3787                           
  3788     01B9                     l1192:	
  3789                           ;incstack = 0
  3790                           ; Regs used in _INT_SetInterruptHandler: [wreg]
  3791                           
  3792                           
  3793                           ;mcc_generated_files/system/src/interrupt.c: 91:     INT_InterruptHandler = InterruptHan
      +                          dler;
  3794     01B9  0871               	movf	INT_SetInterruptHandler@InterruptHandler+1,w
  3795     01BA  00FC               	movwf	_INT_InterruptHandler+1
  3796     01BB  0870               	movf	INT_SetInterruptHandler@InterruptHandler,w
  3797     01BC  00FB               	movwf	_INT_InterruptHandler
  3798     01BD                     l53:
  3799     01BD  0008               	return
  3800     01BE                     __end_of_INT_SetInterruptHandler:
  3801                           
  3802                           	psect	text6
  3803     013A                     __ptext6:	
  3804 ;; *************** function _EUSART1_Initialize *****************
  3805 ;; Defined at:
  3806 ;;		line 94 in file "mcc_generated_files/uart/src/eusart1.c"
  3807 ;; Parameters:    Size  Location     Type
  3808 ;;		None
  3809 ;; Auto vars:     Size  Location     Type
  3810 ;;		None
  3811 ;; Return value:  Size  Location     Type
  3812 ;;                  1    wreg      void 
  3813 ;; Registers used:
  3814 ;;		wreg, status,2, status,0, pclath, cstack
  3815 ;; Tracked objects:
  3816 ;;		On entry : 0/0
  3817 ;;		On exit  : 0/0
  3818 ;;		Unchanged: 0/0
  3819 ;; Data sizes:     COMMON   BANK0   BANK1   BANK2   BANK3   BANK4   BANK5   BANK6   BANK7   BANK8   BANK9  BANK10  BANK1
      +1  BANK12  BANK13  BANK14  BANK15  BANK16  BANK17  BANK18  BANK19  BANK20  BANK21  BANK22  BANK23  BANK24  BANK25
  3820 ;;      Params:         0       0       0       0       0       0       0       0       0       0       0       0       
      +0       0       0       0       0       0       0       0       0       0       0       0       0       0       0
  3821 ;;      Locals:         0       0       0       0       0       0       0       0       0       0       0       0       
      +0       0       0       0       0       0       0       0       0       0       0       0       0       0       0
  3822 ;;      Temps:          0       0       0       0       0       0       0       0       0       0       0       0       
      +0       0       0       0       0       0       0       0       0       0       0       0       0       0       0
  3823 ;;      Totals:         0       0       0       0       0       0       0       0       0       0       0       0       
      +0       0       0       0       0       0       0       0       0       0       0       0       0       0       0
  3824 ;;Total ram usage:        0 bytes
  3825 ;; Hardware stack levels used: 1
  3826 ;; Hardware stack levels required when called: 3
  3827 ;; This function calls:
  3828 ;;		_EUSART1_FramingErrorCallbackRegister
  3829 ;;		_EUSART1_OverrunErrorCallbackRegister
  3830 ;; This function is called by:
  3831 ;;		_SYSTEM_Initialize
  3832 ;; This function uses a non-reentrant model
  3833 ;;
  3834                           
  3835     013A                     _EUSART1_Initialize:	
  3836                           ;psect for function _EUSART1_Initialize
  3837                           
  3838     013A                     l1266:	
  3839                           ;incstack = 0
  3840                           ; Regs used in _EUSART1_Initialize: [wreg+status,2+status,0+pclath+cstack]
  3841                           
  3842                           
  3843                           ;mcc_generated_files/uart/src/eusart1.c: 99:     BAUD1CON = 0x48;
  3844     013A  3048               	movlw	72
  3845     013B  014C               	movlb	12	; select bank12
  3846     013C  0092               	movwf	18	;volatile
  3847                           
  3848                           ;mcc_generated_files/uart/src/eusart1.c: 101:     RC1STA = 0x90;
  3849     013D  3090               	movlw	144
  3850     013E  0090               	movwf	16	;volatile
  3851                           
  3852                           ;mcc_generated_files/uart/src/eusart1.c: 103:     TX1STA = 0x26;
  3853     013F  3026               	movlw	38
  3854     0140  0091               	movwf	17	;volatile
  3855                           
  3856                           ;mcc_generated_files/uart/src/eusart1.c: 105:     SP1BRGL = 0x19;
  3857     0141  3019               	movlw	25
  3858     0142  008E               	movwf	14	;volatile
  3859     0143                     l1268:
  3860                           
  3861                           ;mcc_generated_files/uart/src/eusart1.c: 107:     SP1BRGH = 0x0;
  3862     0143  018F               	clrf	15	;volatile
  3863     0144                     l1270:
  3864                           
  3865                           ;mcc_generated_files/uart/src/eusart1.c: 109:     EUSART1_FramingErrorCallbackRegister(E
      +                          USART1_DefaultFramingErrorCallback);
  3866     0144  30D3               	movlw	low _EUSART1_DefaultFramingErrorCallback
  3867     0145  00F0               	movwf	EUSART1_FramingErrorCallbackRegister@callbackHandler
  3868     0146  3001               	movlw	high _EUSART1_DefaultFramingErrorCallback
  3869     0147  00F1               	movwf	EUSART1_FramingErrorCallbackRegister@callbackHandler+1
  3870     0148  3181  219E  3181   	fcall	_EUSART1_FramingErrorCallbackRegister
  3871     014B                     l1272:
  3872                           
  3873                           ;mcc_generated_files/uart/src/eusart1.c: 110:     EUSART1_OverrunErrorCallbackRegister(E
      +                          USART1_DefaultOverrunErrorCallback);
  3874     014B  30C2               	movlw	low _EUSART1_DefaultOverrunErrorCallback
  3875     014C  00F0               	movwf	EUSART1_OverrunErrorCallbackRegister@callbackHandler
  3876     014D  3001               	movlw	high _EUSART1_DefaultOverrunErrorCallback
  3877     014E  00F1               	movwf	EUSART1_OverrunErrorCallbackRegister@callbackHandler+1
  3878     014F  3181  2193  3181   	fcall	_EUSART1_OverrunErrorCallbackRegister
  3879     0152                     l1274:
  3880                           
  3881                           ;mcc_generated_files/uart/src/eusart1.c: 111:     eusart1RxLastError.status = 0;
  3882     0152  0140               	movlb	0	; select bank0
  3883     0153  01BE               	clrf	_eusart1RxLastError	;volatile
  3884     0154  01BF               	clrf	_eusart1RxLastError+1	;volatile
  3885     0155                     l279:
  3886     0155  0008               	return
  3887     0156                     __end_of_EUSART1_Initialize:
  3888                           
  3889                           	psect	text7
  3890     0193                     __ptext7:	
  3891 ;; *************** function _EUSART1_OverrunErrorCallbackRegister *****************
  3892 ;; Defined at:
  3893 ;;		line 260 in file "mcc_generated_files/uart/src/eusart1.c"
  3894 ;; Parameters:    Size  Location     Type
  3895 ;;  callbackHand    2    0[COMMON] PTR FTN()void 
  3896 ;;		 -> EUSART1_DefaultOverrunErrorCallback(1), 
  3897 ;; Auto vars:     Size  Location     Type
  3898 ;;		None
  3899 ;; Return value:  Size  Location     Type
  3900 ;;                  1    wreg      void 
  3901 ;; Registers used:
  3902 ;;		wreg, status,2, status,0
  3903 ;; Tracked objects:
  3904 ;;		On entry : 0/0
  3905 ;;		On exit  : 0/0
  3906 ;;		Unchanged: 0/0
  3907 ;; Data sizes:     COMMON   BANK0   BANK1   BANK2   BANK3   BANK4   BANK5   BANK6   BANK7   BANK8   BANK9  BANK10  BANK1
      +1  BANK12  BANK13  BANK14  BANK15  BANK16  BANK17  BANK18  BANK19  BANK20  BANK21  BANK22  BANK23  BANK24  BANK25
  3908 ;;      Params:         2       0       0       0       0       0       0       0       0       0       0       0       
      +0       0       0       0       0       0       0       0       0       0       0       0       0       0       0
  3909 ;;      Locals:         0       0       0       0       0       0       0       0       0       0       0       0       
      +0       0       0       0       0       0       0       0       0       0       0       0       0       0       0
  3910 ;;      Temps:          0       0       0       0       0       0       0       0       0       0       0       0       
      +0       0       0       0       0       0       0       0       0       0       0       0       0       0       0
  3911 ;;      Totals:         2       0       0       0       0       0       0       0       0       0       0       0       
      +0       0       0       0       0       0       0       0       0       0       0       0       0       0       0
  3912 ;;Total ram usage:        2 bytes
  3913 ;; Hardware stack levels used: 1
  3914 ;; Hardware stack levels required when called: 2
  3915 ;; This function calls:
  3916 ;;		Nothing
  3917 ;; This function is called by:
  3918 ;;		_EUSART1_Initialize
  3919 ;; This function uses a non-reentrant model
  3920 ;;
  3921                           
  3922     0193                     _EUSART1_OverrunErrorCallbackRegister:	
  3923                           ;psect for function _EUSART1_OverrunErrorCallbackRegister
  3924                           
  3925     0193                     l1198:	
  3926                           ;incstack = 0
  3927                           ; Regs used in _EUSART1_OverrunErrorCallbackRegister: [wreg+status,2+status,0]
  3928                           
  3929                           
  3930                           ;mcc_generated_files/uart/src/eusart1.c: 260: void EUSART1_OverrunErrorCallbackRegister(
      +                          void (* callbackHandler)(void));mcc_generated_files/uart/src/eusart1.c: 261: {;mcc_gener
      +                          ated_files/uart/src/eusart1.c: 262:     if(((void*)0) != callbackHandler)
  3931     0193  0870               	movf	EUSART1_OverrunErrorCallbackRegister@callbackHandler,w
  3932     0194  0471               	iorwf	EUSART1_OverrunErrorCallbackRegister@callbackHandler+1,w
  3933     0195  1903               	btfsc	3,2
  3934     0196  2998               	goto	u211
  3935     0197  2999               	goto	u210
  3936     0198                     u211:
  3937     0198  299D               	goto	l358
  3938     0199                     u210:
  3939     0199                     l1200:
  3940                           
  3941                           ;mcc_generated_files/uart/src/eusart1.c: 263:     {;mcc_generated_files/uart/src/eusart1
      +                          .c: 264:         EUSART1_OverrunErrorHandler = callbackHandler;
  3942     0199  0871               	movf	EUSART1_OverrunErrorCallbackRegister@callbackHandler+1,w
  3943     019A  00F8               	movwf	_EUSART1_OverrunErrorHandler+1
  3944     019B  0870               	movf	EUSART1_OverrunErrorCallbackRegister@callbackHandler,w
  3945     019C  00F7               	movwf	_EUSART1_OverrunErrorHandler
  3946     019D                     l358:
  3947     019D  0008               	return
  3948     019E                     __end_of_EUSART1_OverrunErrorCallbackRegister:
  3949                           
  3950                           	psect	text8
  3951     019E                     __ptext8:	
  3952 ;; *************** function _EUSART1_FramingErrorCallbackRegister *****************
  3953 ;; Defined at:
  3954 ;;		line 252 in file "mcc_generated_files/uart/src/eusart1.c"
  3955 ;; Parameters:    Size  Location     Type
  3956 ;;  callbackHand    2    0[COMMON] PTR FTN()void 
  3957 ;;		 -> EUSART1_DefaultFramingErrorCallback(1), 
  3958 ;; Auto vars:     Size  Location     Type
  3959 ;;		None
  3960 ;; Return value:  Size  Location     Type
  3961 ;;                  1    wreg      void 
  3962 ;; Registers used:
  3963 ;;		wreg, status,2, status,0
  3964 ;; Tracked objects:
  3965 ;;		On entry : 0/0
  3966 ;;		On exit  : 0/0
  3967 ;;		Unchanged: 0/0
  3968 ;; Data sizes:     COMMON   BANK0   BANK1   BANK2   BANK3   BANK4   BANK5   BANK6   BANK7   BANK8   BANK9  BANK10  BANK1
      +1  BANK12  BANK13  BANK14  BANK15  BANK16  BANK17  BANK18  BANK19  BANK20  BANK21  BANK22  BANK23  BANK24  BANK25
  3969 ;;      Params:         2       0       0       0       0       0       0       0       0       0       0       0       
      +0       0       0       0       0       0       0       0       0       0       0       0       0       0       0
  3970 ;;      Locals:         0       0       0       0       0       0       0       0       0       0       0       0       
      +0       0       0       0       0       0       0       0       0       0       0       0       0       0       0
  3971 ;;      Temps:          0       0       0       0       0       0       0       0       0       0       0       0       
      +0       0       0       0       0       0       0       0       0       0       0       0       0       0       0
  3972 ;;      Totals:         2       0       0       0       0       0       0       0       0       0       0       0       
      +0       0       0       0       0       0       0       0       0       0       0       0       0       0       0
  3973 ;;Total ram usage:        2 bytes
  3974 ;; Hardware stack levels used: 1
  3975 ;; Hardware stack levels required when called: 2
  3976 ;; This function calls:
  3977 ;;		Nothing
  3978 ;; This function is called by:
  3979 ;;		_EUSART1_Initialize
  3980 ;; This function uses a non-reentrant model
  3981 ;;
  3982                           
  3983     019E                     _EUSART1_FramingErrorCallbackRegister:	
  3984                           ;psect for function _EUSART1_FramingErrorCallbackRegister
  3985                           
  3986     019E                     l1194:	
  3987                           ;incstack = 0
  3988                           ; Regs used in _EUSART1_FramingErrorCallbackRegister: [wreg+status,2+status,0]
  3989                           
  3990                           
  3991                           ;mcc_generated_files/uart/src/eusart1.c: 252: void EUSART1_FramingErrorCallbackRegister(
      +                          void (* callbackHandler)(void));mcc_generated_files/uart/src/eusart1.c: 253: {;mcc_gener
      +                          ated_files/uart/src/eusart1.c: 254:     if(((void*)0) != callbackHandler)
  3992     019E  0870               	movf	EUSART1_FramingErrorCallbackRegister@callbackHandler,w
  3993     019F  0471               	iorwf	EUSART1_FramingErrorCallbackRegister@callbackHandler+1,w
  3994     01A0  1903               	btfsc	3,2
  3995     01A1  29A3               	goto	u201
  3996     01A2  29A4               	goto	u200
  3997     01A3                     u201:
  3998     01A3  29A8               	goto	l354
  3999     01A4                     u200:
  4000     01A4                     l1196:
  4001                           
  4002                           ;mcc_generated_files/uart/src/eusart1.c: 255:     {;mcc_generated_files/uart/src/eusart1
      +                          .c: 256:         EUSART1_FramingErrorHandler = callbackHandler;
  4003     01A4  0871               	movf	EUSART1_FramingErrorCallbackRegister@callbackHandler+1,w
  4004     01A5  00FA               	movwf	_EUSART1_FramingErrorHandler+1
  4005     01A6  0870               	movf	EUSART1_FramingErrorCallbackRegister@callbackHandler,w
  4006     01A7  00F9               	movwf	_EUSART1_FramingErrorHandler
  4007     01A8                     l354:
  4008     01A8  0008               	return
  4009     01A9                     __end_of_EUSART1_FramingErrorCallbackRegister:
  4010                           
  4011                           	psect	text9
  4012     01A9                     __ptext9:	
  4013 ;; *************** function _CLOCK_Initialize *****************
  4014 ;; Defined at:
  4015 ;;		line 37 in file "mcc_generated_files/system/src/clock.c"
  4016 ;; Parameters:    Size  Location     Type
  4017 ;;		None
  4018 ;; Auto vars:     Size  Location     Type
  4019 ;;		None
  4020 ;; Return value:  Size  Location     Type
  4021 ;;                  1    wreg      void 
  4022 ;; Registers used:
  4023 ;;		wreg, status,2
  4024 ;; Tracked objects:
  4025 ;;		On entry : 0/0
  4026 ;;		On exit  : 0/0
  4027 ;;		Unchanged: 0/0
  4028 ;; Data sizes:     COMMON   BANK0   BANK1   BANK2   BANK3   BANK4   BANK5   BANK6   BANK7   BANK8   BANK9  BANK10  BANK1
      +1  BANK12  BANK13  BANK14  BANK15  BANK16  BANK17  BANK18  BANK19  BANK20  BANK21  BANK22  BANK23  BANK24  BANK25
  4029 ;;      Params:         0       0       0       0       0       0       0       0       0       0       0       0       
      +0       0       0       0       0       0       0       0       0       0       0       0       0       0       0
  4030 ;;      Locals:         0       0       0       0       0       0       0       0       0       0       0       0       
      +0       0       0       0       0       0       0       0       0       0       0       0       0       0       0
  4031 ;;      Temps:          0       0       0       0       0       0       0       0       0       0       0       0       
      +0       0       0       0       0       0       0       0       0       0       0       0       0       0       0
  4032 ;;      Totals:         0       0       0       0       0       0       0       0       0       0       0       0       
      +0       0       0       0       0       0       0       0       0       0       0       0       0       0       0
  4033 ;;Total ram usage:        0 bytes
  4034 ;; Hardware stack levels used: 1
  4035 ;; Hardware stack levels required when called: 2
  4036 ;; This function calls:
  4037 ;;		Nothing
  4038 ;; This function is called by:
  4039 ;;		_SYSTEM_Initialize
  4040 ;; This function uses a non-reentrant model
  4041 ;;
  4042                           
  4043     01A9                     _CLOCK_Initialize:	
  4044                           ;psect for function _CLOCK_Initialize
  4045                           
  4046     01A9                     l1202:	
  4047                           ;incstack = 0
  4048                           ; Regs used in _CLOCK_Initialize: [wreg+status,2]
  4049                           
  4050                           
  4051                           ;mcc_generated_files/system/src/clock.c: 41:     OSCCON2 = 0x60;
  4052     01A9  3060               	movlw	96
  4053     01AA  0144               	movlb	4	; select bank4
  4054     01AB  008E               	movwf	14	;volatile
  4055     01AC                     l1204:
  4056                           
  4057                           ;mcc_generated_files/system/src/clock.c: 43:     OSCCON3 = 0x0;
  4058     01AC  018F               	clrf	15	;volatile
  4059     01AD                     l1206:
  4060                           
  4061                           ;mcc_generated_files/system/src/clock.c: 45:     OSCEN = 0x0;
  4062     01AD  0191               	clrf	17	;volatile
  4063     01AE                     l1208:
  4064                           
  4065                           ;mcc_generated_files/system/src/clock.c: 47:     OSCFRQ = 0x0;
  4066     01AE  0193               	clrf	19	;volatile
  4067     01AF                     l1210:
  4068                           
  4069                           ;mcc_generated_files/system/src/clock.c: 49:     OSCSTAT = 0x0;
  4070     01AF  0190               	clrf	16	;volatile
  4071     01B0                     l1212:
  4072                           
  4073                           ;mcc_generated_files/system/src/clock.c: 51:     OSCTUNE = 0x0;
  4074     01B0  0192               	clrf	18	;volatile
  4075     01B1                     l1214:
  4076                           
  4077                           ;mcc_generated_files/system/src/clock.c: 53:     ACTCON = 0x0;
  4078     01B1  0194               	clrf	20	;volatile
  4079     01B2                     l17:
  4080     01B2  0008               	return
  4081     01B3                     __end_of_CLOCK_Initialize:
  4082                           
  4083                           	psect	text10
  4084     01BE                     __ptext10:	
  4085 ;; *************** function _EUSART1_Write *****************
  4086 ;; Defined at:
  4087 ;;		line 235 in file "mcc_generated_files/uart/src/eusart1.c"
  4088 ;; Parameters:    Size  Location     Type
  4089 ;;  txData          1    0[COMMON] unsigned char 
  4090 ;; Auto vars:     Size  Location     Type
  4091 ;;		None
  4092 ;; Return value:  Size  Location     Type
  4093 ;;                  1    wreg      void 
  4094 ;; Registers used:
  4095 ;;		wreg
  4096 ;; Tracked objects:
  4097 ;;		On entry : 0/0
  4098 ;;		On exit  : 0/0
  4099 ;;		Unchanged: 0/0
  4100 ;; Data sizes:     COMMON   BANK0   BANK1   BANK2   BANK3   BANK4   BANK5   BANK6   BANK7   BANK8   BANK9  BANK10  BANK1
      +1  BANK12  BANK13  BANK14  BANK15  BANK16  BANK17  BANK18  BANK19  BANK20  BANK21  BANK22  BANK23  BANK24  BANK25
  4101 ;;      Params:         1       0       0       0       0       0       0       0       0       0       0       0       
      +0       0       0       0       0       0       0       0       0       0       0       0       0       0       0
  4102 ;;      Locals:         0       0       0       0       0       0       0       0       0       0       0       0       
      +0       0       0       0       0       0       0       0       0       0       0       0       0       0       0
  4103 ;;      Temps:          0       0       0       0       0       0       0       0       0       0       0       0       
      +0       0       0       0       0       0       0       0       0       0       0       0       0       0       0
  4104 ;;      Totals:         1       0       0       0       0       0       0       0       0       0       0       0       
      +0       0       0       0       0       0       0       0       0       0       0       0       0       0       0
  4105 ;;Total ram usage:        1 bytes
  4106 ;; Hardware stack levels used: 1
  4107 ;; Hardware stack levels required when called: 2
  4108 ;; This function calls:
  4109 ;;		Nothing
  4110 ;; This function is called by:
  4111 ;;		_main
  4112 ;; This function uses a non-reentrant model
  4113 ;;
  4114                           
  4115     01BE                     _EUSART1_Write:	
  4116                           ;psect for function _EUSART1_Write
  4117                           
  4118     01BE                     l1308:	
  4119                           ;incstack = 0
  4120                           ; Regs used in _EUSART1_Write: [wreg]
  4121                           
  4122                           
  4123                           ;mcc_generated_files/uart/src/eusart1.c: 235: void EUSART1_Write(uint8_t txData);mcc_gen
      +                          erated_files/uart/src/eusart1.c: 236: {;mcc_generated_files/uart/src/eusart1.c: 237:    
      +                           TX1REG = txData;
  4124     01BE  0870               	movf	EUSART1_Write@txData,w
  4125     01BF  014C               	movlb	12	; select bank12
  4126     01C0  008D               	movwf	13	;volatile
  4127     01C1                     l344:
  4128     01C1  0008               	return
  4129     01C2                     __end_of_EUSART1_Write:
  4130                           
  4131                           	psect	text11
  4132     01CA                     __ptext11:	
  4133 ;; *************** function _EUSART1_TransmitEnable *****************
  4134 ;; Defined at:
  4135 ;;		line 136 in file "mcc_generated_files/uart/src/eusart1.c"
  4136 ;; Parameters:    Size  Location     Type
  4137 ;;		None
  4138 ;; Auto vars:     Size  Location     Type
  4139 ;;		None
  4140 ;; Return value:  Size  Location     Type
  4141 ;;                  1    wreg      void 
  4142 ;; Registers used:
  4143 ;;		None
  4144 ;; Tracked objects:
  4145 ;;		On entry : 0/0
  4146 ;;		On exit  : 0/0
  4147 ;;		Unchanged: 0/0
  4148 ;; Data sizes:     COMMON   BANK0   BANK1   BANK2   BANK3   BANK4   BANK5   BANK6   BANK7   BANK8   BANK9  BANK10  BANK1
      +1  BANK12  BANK13  BANK14  BANK15  BANK16  BANK17  BANK18  BANK19  BANK20  BANK21  BANK22  BANK23  BANK24  BANK25
  4149 ;;      Params:         0       0       0       0       0       0       0       0       0       0       0       0       
      +0       0       0       0       0       0       0       0       0       0       0       0       0       0       0
  4150 ;;      Locals:         0       0       0       0       0       0       0       0       0       0       0       0       
      +0       0       0       0       0       0       0       0       0       0       0       0       0       0       0
  4151 ;;      Temps:          0       0       0       0       0       0       0       0       0       0       0       0       
      +0       0       0       0       0       0       0       0       0       0       0       0       0       0       0
  4152 ;;      Totals:         0       0       0       0       0       0       0       0       0       0       0       0       
      +0       0       0       0       0       0       0       0       0       0       0       0       0       0       0
  4153 ;;Total ram usage:        0 bytes
  4154 ;; Hardware stack levels used: 1
  4155 ;; Hardware stack levels required when called: 2
  4156 ;; This function calls:
  4157 ;;		Nothing
  4158 ;; This function is called by:
  4159 ;;		_main
  4160 ;; This function uses a non-reentrant model
  4161 ;;
  4162                           
  4163     01CA                     _EUSART1_TransmitEnable:	
  4164                           ;psect for function _EUSART1_TransmitEnable
  4165                           
  4166     01CA                     l1282:	
  4167                           ;incstack = 0
  4168                           ; Regs used in _EUSART1_TransmitEnable: []
  4169                           
  4170                           
  4171                           ;mcc_generated_files/uart/src/eusart1.c: 138:     TX1STAbits.TXEN = 1;
  4172     01CA  014C               	movlb	12	; select bank12
  4173     01CB  1691               	bsf	17,5	;volatile
  4174     01CC                     l291:
  4175     01CC  0008               	return
  4176     01CD                     __end_of_EUSART1_TransmitEnable:
  4177                           
  4178                           	psect	text12
  4179     01CD                     __ptext12:	
  4180 ;; *************** function _EUSART1_ReceiveEnable *****************
  4181 ;; Defined at:
  4182 ;;		line 146 in file "mcc_generated_files/uart/src/eusart1.c"
  4183 ;; Parameters:    Size  Location     Type
  4184 ;;		None
  4185 ;; Auto vars:     Size  Location     Type
  4186 ;;		None
  4187 ;; Return value:  Size  Location     Type
  4188 ;;                  1    wreg      void 
  4189 ;; Registers used:
  4190 ;;		None
  4191 ;; Tracked objects:
  4192 ;;		On entry : 0/0
  4193 ;;		On exit  : 0/0
  4194 ;;		Unchanged: 0/0
  4195 ;; Data sizes:     COMMON   BANK0   BANK1   BANK2   BANK3   BANK4   BANK5   BANK6   BANK7   BANK8   BANK9  BANK10  BANK1
      +1  BANK12  BANK13  BANK14  BANK15  BANK16  BANK17  BANK18  BANK19  BANK20  BANK21  BANK22  BANK23  BANK24  BANK25
  4196 ;;      Params:         0       0       0       0       0       0       0       0       0       0       0       0       
      +0       0       0       0       0       0       0       0       0       0       0       0       0       0       0
  4197 ;;      Locals:         0       0       0       0       0       0       0       0       0       0       0       0       
      +0       0       0       0       0       0       0       0       0       0       0       0       0       0       0
  4198 ;;      Temps:          0       0       0       0       0       0       0       0       0       0       0       0       
      +0       0       0       0       0       0       0       0       0       0       0       0       0       0       0
  4199 ;;      Totals:         0       0       0       0       0       0       0       0       0       0       0       0       
      +0       0       0       0       0       0       0       0       0       0       0       0       0       0       0
  4200 ;;Total ram usage:        0 bytes
  4201 ;; Hardware stack levels used: 1
  4202 ;; Hardware stack levels required when called: 2
  4203 ;; This function calls:
  4204 ;;		Nothing
  4205 ;; This function is called by:
  4206 ;;		_main
  4207 ;; This function uses a non-reentrant model
  4208 ;;
  4209                           
  4210     01CD                     _EUSART1_ReceiveEnable:	
  4211                           ;psect for function _EUSART1_ReceiveEnable
  4212                           
  4213     01CD                     l1284:	
  4214                           ;incstack = 0
  4215                           ; Regs used in _EUSART1_ReceiveEnable: []
  4216                           
  4217                           
  4218                           ;mcc_generated_files/uart/src/eusart1.c: 148:     RC1STAbits.CREN = 1;
  4219     01CD  014C               	movlb	12	; select bank12
  4220     01CE  1610               	bsf	16,4	;volatile
  4221     01CF                     l297:
  4222     01CF  0008               	return
  4223     01D0                     __end_of_EUSART1_ReceiveEnable:
  4224                           
  4225                           	psect	text13
  4226     0110                     __ptext13:	
  4227 ;; *************** function _EUSART1_Read *****************
  4228 ;; Defined at:
  4229 ;;		line 213 in file "mcc_generated_files/uart/src/eusart1.c"
  4230 ;; Parameters:    Size  Location     Type
  4231 ;;		None
  4232 ;; Auto vars:     Size  Location     Type
  4233 ;;		None
  4234 ;; Return value:  Size  Location     Type
  4235 ;;                  1    wreg      unsigned char 
  4236 ;; Registers used:
  4237 ;;		wreg, status,2, status,0, pclath, cstack
  4238 ;; Tracked objects:
  4239 ;;		On entry : 0/0
  4240 ;;		On exit  : 0/0
  4241 ;;		Unchanged: 0/0
  4242 ;; Data sizes:     COMMON   BANK0   BANK1   BANK2   BANK3   BANK4   BANK5   BANK6   BANK7   BANK8   BANK9  BANK10  BANK1
      +1  BANK12  BANK13  BANK14  BANK15  BANK16  BANK17  BANK18  BANK19  BANK20  BANK21  BANK22  BANK23  BANK24  BANK25
  4243 ;;      Params:         0       0       0       0       0       0       0       0       0       0       0       0       
      +0       0       0       0       0       0       0       0       0       0       0       0       0       0       0
  4244 ;;      Locals:         0       0       0       0       0       0       0       0       0       0       0       0       
      +0       0       0       0       0       0       0       0       0       0       0       0       0       0       0
  4245 ;;      Temps:          0       0       0       0       0       0       0       0       0       0       0       0       
      +0       0       0       0       0       0       0       0       0       0       0       0       0       0       0
  4246 ;;      Totals:         0       0       0       0       0       0       0       0       0       0       0       0       
      +0       0       0       0       0       0       0       0       0       0       0       0       0       0       0
  4247 ;;Total ram usage:        0 bytes
  4248 ;; Hardware stack levels used: 1
  4249 ;; Hardware stack levels required when called: 3
  4250 ;; This function calls:
  4251 ;;		NULL
  4252 ;;		_EUSART1_DefaultFramingErrorCallback
  4253 ;;		_EUSART1_DefaultOverrunErrorCallback
  4254 ;; This function is called by:
  4255 ;;		_main
  4256 ;; This function uses a non-reentrant model
  4257 ;;
  4258                           
  4259     0110                     _EUSART1_Read:	
  4260                           ;psect for function _EUSART1_Read
  4261                           
  4262     0110                     l1286:	
  4263                           ;incstack = 0
  4264                           ; Regs used in _EUSART1_Read: [wreg+status,2+status,0+pclath+cstack]
  4265                           
  4266                           
  4267                           ;mcc_generated_files/uart/src/eusart1.c: 215:     eusart1RxLastError.status = 0;
  4268     0110  0140               	movlb	0	; select bank0
  4269     0111  01BE               	clrf	_eusart1RxLastError	;volatile
  4270     0112  01BF               	clrf	_eusart1RxLastError+1	;volatile
  4271     0113                     l1288:
  4272                           
  4273                           ;mcc_generated_files/uart/src/eusart1.c: 216:     if(RC1STAbits.OERR)
  4274     0113  014C               	movlb	12	; select bank12
  4275     0114  1C90               	btfss	16,1	;volatile
  4276     0115  2917               	goto	u221
  4277     0116  2918               	goto	u220
  4278     0117                     u221:
  4279     0117  2925               	goto	l1296
  4280     0118                     u220:
  4281     0118                     l1290:
  4282                           
  4283                           ;mcc_generated_files/uart/src/eusart1.c: 217:     {;mcc_generated_files/uart/src/eusart1
      +                          .c: 218:         eusart1RxLastError.oerr = 1;
  4284     0118  0140               	movlb	0	; select bank0
  4285     0119  153E               	bsf	_eusart1RxLastError,2	;volatile
  4286     011A                     l1292:
  4287                           
  4288                           ;mcc_generated_files/uart/src/eusart1.c: 219:         if(((void*)0) != EUSART1_OverrunEr
      +                          rorHandler)
  4289     011A  0877               	movf	_EUSART1_OverrunErrorHandler,w
  4290     011B  0478               	iorwf	_EUSART1_OverrunErrorHandler+1,w
  4291     011C  1903               	btfsc	3,2
  4292     011D  291F               	goto	u231
  4293     011E  2920               	goto	u230
  4294     011F                     u231:
  4295     011F  2925               	goto	l1296
  4296     0120                     u230:
  4297     0120                     l1294:
  4298                           
  4299                           ;mcc_generated_files/uart/src/eusart1.c: 220:         {;mcc_generated_files/uart/src/eus
      +                          art1.c: 221:             EUSART1_OverrunErrorHandler();
  4300     0120  0878               	movf	_EUSART1_OverrunErrorHandler+1,w
  4301     0121  008A               	movwf	10
  4302     0122  0877               	movf	_EUSART1_OverrunErrorHandler,w
  4303     0123  000A               	callw
  4304     0124  3181               	pagesel	$
  4305     0125                     l1296:
  4306                           
  4307                           ;mcc_generated_files/uart/src/eusart1.c: 224:     if(RC1STAbits.FERR)
  4308     0125  014C               	movlb	12	; select bank12
  4309     0126  1D10               	btfss	16,2	;volatile
  4310     0127  2929               	goto	u241
  4311     0128  292A               	goto	u240
  4312     0129                     u241:
  4313     0129  2937               	goto	l1304
  4314     012A                     u240:
  4315     012A                     l1298:
  4316                           
  4317                           ;mcc_generated_files/uart/src/eusart1.c: 225:     {;mcc_generated_files/uart/src/eusart1
      +                          .c: 226:         eusart1RxLastError.ferr = 1;
  4318     012A  0140               	movlb	0	; select bank0
  4319     012B  14BE               	bsf	_eusart1RxLastError,1	;volatile
  4320     012C                     l1300:
  4321                           
  4322                           ;mcc_generated_files/uart/src/eusart1.c: 227:         if(((void*)0) != EUSART1_FramingEr
      +                          rorHandler)
  4323     012C  0879               	movf	_EUSART1_FramingErrorHandler,w
  4324     012D  047A               	iorwf	_EUSART1_FramingErrorHandler+1,w
  4325     012E  1903               	btfsc	3,2
  4326     012F  2931               	goto	u251
  4327     0130  2932               	goto	u250
  4328     0131                     u251:
  4329     0131  2937               	goto	l1304
  4330     0132                     u250:
  4331     0132                     l1302:
  4332                           
  4333                           ;mcc_generated_files/uart/src/eusart1.c: 228:         {;mcc_generated_files/uart/src/eus
      +                          art1.c: 229:             EUSART1_FramingErrorHandler();
  4334     0132  087A               	movf	_EUSART1_FramingErrorHandler+1,w
  4335     0133  008A               	movwf	10
  4336     0134  0879               	movf	_EUSART1_FramingErrorHandler,w
  4337     0135  000A               	callw
  4338     0136  3181               	pagesel	$
  4339     0137                     l1304:
  4340                           
  4341                           ;mcc_generated_files/uart/src/eusart1.c: 232:     return RC1REG;
  4342     0137  014C               	movlb	12	; select bank12
  4343     0138  080C               	movf	12,w	;volatile
  4344     0139                     l341:
  4345     0139  0008               	return
  4346     013A                     __end_of_EUSART1_Read:
  4347                           
  4348                           	psect	text14
  4349     01C2                     __ptext14:	
  4350 ;; *************** function _EUSART1_DefaultOverrunErrorCallback *****************
  4351 ;; Defined at:
  4352 ;;		line 245 in file "mcc_generated_files/uart/src/eusart1.c"
  4353 ;; Parameters:    Size  Location     Type
  4354 ;;		None
  4355 ;; Auto vars:     Size  Location     Type
  4356 ;;		None
  4357 ;; Return value:  Size  Location     Type
  4358 ;;                  1    wreg      void 
  4359 ;; Registers used:
  4360 ;;		None
  4361 ;; Tracked objects:
  4362 ;;		On entry : 0/0
  4363 ;;		On exit  : 0/0
  4364 ;;		Unchanged: 0/0
  4365 ;; Data sizes:     COMMON   BANK0   BANK1   BANK2   BANK3   BANK4   BANK5   BANK6   BANK7   BANK8   BANK9  BANK10  BANK1
      +1  BANK12  BANK13  BANK14  BANK15  BANK16  BANK17  BANK18  BANK19  BANK20  BANK21  BANK22  BANK23  BANK24  BANK25
  4366 ;;      Params:         0       0       0       0       0       0       0       0       0       0       0       0       
      +0       0       0       0       0       0       0       0       0       0       0       0       0       0       0
  4367 ;;      Locals:         0       0       0       0       0       0       0       0       0       0       0       0       
      +0       0       0       0       0       0       0       0       0       0       0       0       0       0       0
  4368 ;;      Temps:          0       0       0       0       0       0       0       0       0       0       0       0       
      +0       0       0       0       0       0       0       0       0       0       0       0       0       0       0
  4369 ;;      Totals:         0       0       0       0       0       0       0       0       0       0       0       0       
      +0       0       0       0       0       0       0       0       0       0       0       0       0       0       0
  4370 ;;Total ram usage:        0 bytes
  4371 ;; Hardware stack levels used: 1
  4372 ;; Hardware stack levels required when called: 2
  4373 ;; This function calls:
  4374 ;;		Nothing
  4375 ;; This function is called by:
  4376 ;;		_EUSART1_Initialize
  4377 ;;		_EUSART1_Read
  4378 ;; This function uses a non-reentrant model
  4379 ;;
  4380                           
  4381     01C2                     _EUSART1_DefaultOverrunErrorCallback:	
  4382                           ;psect for function _EUSART1_DefaultOverrunErrorCallback
  4383                           
  4384     01C2                     l1276:	
  4385                           ;incstack = 0
  4386                           ; Regs used in _EUSART1_DefaultOverrunErrorCallback: []
  4387                           
  4388                           
  4389                           ;mcc_generated_files/uart/src/eusart1.c: 248:     RC1STAbits.CREN = 0;
  4390     01C2  014C               	movlb	12	; select bank12
  4391     01C3  1210               	bcf	16,4	;volatile
  4392                           
  4393                           ;mcc_generated_files/uart/src/eusart1.c: 249:     RC1STAbits.CREN = 1;
  4394     01C4  1610               	bsf	16,4	;volatile
  4395     01C5                     l350:
  4396     01C5  0008               	return
  4397     01C6                     __end_of_EUSART1_DefaultOverrunErrorCallback:
  4398                           
  4399                           	psect	text15
  4400     01D3                     __ptext15:	
  4401 ;; *************** function _EUSART1_DefaultFramingErrorCallback *****************
  4402 ;; Defined at:
  4403 ;;		line 240 in file "mcc_generated_files/uart/src/eusart1.c"
  4404 ;; Parameters:    Size  Location     Type
  4405 ;;		None
  4406 ;; Auto vars:     Size  Location     Type
  4407 ;;		None
  4408 ;; Return value:  Size  Location     Type
  4409 ;;                  1    wreg      void 
  4410 ;; Registers used:
  4411 ;;		None
  4412 ;; Tracked objects:
  4413 ;;		On entry : 0/0
  4414 ;;		On exit  : 0/0
  4415 ;;		Unchanged: 0/0
  4416 ;; Data sizes:     COMMON   BANK0   BANK1   BANK2   BANK3   BANK4   BANK5   BANK6   BANK7   BANK8   BANK9  BANK10  BANK1
      +1  BANK12  BANK13  BANK14  BANK15  BANK16  BANK17  BANK18  BANK19  BANK20  BANK21  BANK22  BANK23  BANK24  BANK25
  4417 ;;      Params:         0       0       0       0       0       0       0       0       0       0       0       0       
      +0       0       0       0       0       0       0       0       0       0       0       0       0       0       0
  4418 ;;      Locals:         0       0       0       0       0       0       0       0       0       0       0       0       
      +0       0       0       0       0       0       0       0       0       0       0       0       0       0       0
  4419 ;;      Temps:          0       0       0       0       0       0       0       0       0       0       0       0       
      +0       0       0       0       0       0       0       0       0       0       0       0       0       0       0
  4420 ;;      Totals:         0       0       0       0       0       0       0       0       0       0       0       0       
      +0       0       0       0       0       0       0       0       0       0       0       0       0       0       0
  4421 ;;Total ram usage:        0 bytes
  4422 ;; Hardware stack levels used: 1
  4423 ;; Hardware stack levels required when called: 2
  4424 ;; This function calls:
  4425 ;;		Nothing
  4426 ;; This function is called by:
  4427 ;;		_EUSART1_Initialize
  4428 ;;		_EUSART1_Read
  4429 ;; This function uses a non-reentrant model
  4430 ;;
  4431                           
  4432     01D3                     _EUSART1_DefaultFramingErrorCallback:	
  4433                           ;psect for function _EUSART1_DefaultFramingErrorCallback
  4434                           
  4435     01D3                     l347:	
  4436                           ;incstack = 0
  4437                           ; Regs used in _EUSART1_DefaultFramingErrorCallback: []
  4438                           
  4439     01D3  0008               	return
  4440     01D4                     __end_of_EUSART1_DefaultFramingErrorCallback:
  4441                           
  4442                           	psect	text16
  4443     01C6                     __ptext16:	
  4444 ;; *************** function _EUSART1_IsTxDone *****************
  4445 ;; Defined at:
  4446 ;;		line 203 in file "mcc_generated_files/uart/src/eusart1.c"
  4447 ;; Parameters:    Size  Location     Type
  4448 ;;		None
  4449 ;; Auto vars:     Size  Location     Type
  4450 ;;		None
  4451 ;; Return value:  Size  Location     Type
  4452 ;;                  1    wreg      _Bool 
  4453 ;; Registers used:
  4454 ;;		wreg, status,2, status,0
  4455 ;; Tracked objects:
  4456 ;;		On entry : 0/0
  4457 ;;		On exit  : 0/0
  4458 ;;		Unchanged: 0/0
  4459 ;; Data sizes:     COMMON   BANK0   BANK1   BANK2   BANK3   BANK4   BANK5   BANK6   BANK7   BANK8   BANK9  BANK10  BANK1
      +1  BANK12  BANK13  BANK14  BANK15  BANK16  BANK17  BANK18  BANK19  BANK20  BANK21  BANK22  BANK23  BANK24  BANK25
  4460 ;;      Params:         0       0       0       0       0       0       0       0       0       0       0       0       
      +0       0       0       0       0       0       0       0       0       0       0       0       0       0       0
  4461 ;;      Locals:         0       0       0       0       0       0       0       0       0       0       0       0       
      +0       0       0       0       0       0       0       0       0       0       0       0       0       0       0
  4462 ;;      Temps:          0       0       0       0       0       0       0       0       0       0       0       0       
      +0       0       0       0       0       0       0       0       0       0       0       0       0       0       0
  4463 ;;      Totals:         0       0       0       0       0       0       0       0       0       0       0       0       
      +0       0       0       0       0       0       0       0       0       0       0       0       0       0       0
  4464 ;;Total ram usage:        0 bytes
  4465 ;; Hardware stack levels used: 1
  4466 ;; Hardware stack levels required when called: 2
  4467 ;; This function calls:
  4468 ;;		Nothing
  4469 ;; This function is called by:
  4470 ;;		_main
  4471 ;; This function uses a non-reentrant model
  4472 ;;
  4473                           
  4474     01C6                     _EUSART1_IsTxDone:	
  4475                           ;psect for function _EUSART1_IsTxDone
  4476                           
  4477     01C6                     l1310:	
  4478                           ;incstack = 0
  4479                           ; Regs used in _EUSART1_IsTxDone: [wreg+status,2+status,0]
  4480                           
  4481                           
  4482                           ;mcc_generated_files/uart/src/eusart1.c: 205:     return TX1STAbits.TRMT;
  4483     01C6  014C               	movlb	12	; select bank12
  4484     01C7  0C11               	rrf	17,w	;volatile
  4485     01C8  3901               	andlw	1
  4486     01C9                     l331:
  4487     01C9  0008               	return
  4488     01CA                     __end_of_EUSART1_IsTxDone:
  4489                           
  4490                           	psect	text17
  4491     01D0                     __ptext17:	
  4492 ;; *************** function _EUSART1_Enable *****************
  4493 ;; Defined at:
  4494 ;;		line 124 in file "mcc_generated_files/uart/src/eusart1.c"
  4495 ;; Parameters:    Size  Location     Type
  4496 ;;		None
  4497 ;; Auto vars:     Size  Location     Type
  4498 ;;		None
  4499 ;; Return value:  Size  Location     Type
  4500 ;;                  1    wreg      void 
  4501 ;; Registers used:
  4502 ;;		None
  4503 ;; Tracked objects:
  4504 ;;		On entry : 0/0
  4505 ;;		On exit  : 0/0
  4506 ;;		Unchanged: 0/0
  4507 ;; Data sizes:     COMMON   BANK0   BANK1   BANK2   BANK3   BANK4   BANK5   BANK6   BANK7   BANK8   BANK9  BANK10  BANK1
      +1  BANK12  BANK13  BANK14  BANK15  BANK16  BANK17  BANK18  BANK19  BANK20  BANK21  BANK22  BANK23  BANK24  BANK25
  4508 ;;      Params:         0       0       0       0       0       0       0       0       0       0       0       0       
      +0       0       0       0       0       0       0       0       0       0       0       0       0       0       0
  4509 ;;      Locals:         0       0       0       0       0       0       0       0       0       0       0       0       
      +0       0       0       0       0       0       0       0       0       0       0       0       0       0       0
  4510 ;;      Temps:          0       0       0       0       0       0       0       0       0       0       0       0       
      +0       0       0       0       0       0       0       0       0       0       0       0       0       0       0
  4511 ;;      Totals:         0       0       0       0       0       0       0       0       0       0       0       0       
      +0       0       0       0       0       0       0       0       0       0       0       0       0       0       0
  4512 ;;Total ram usage:        0 bytes
  4513 ;; Hardware stack levels used: 1
  4514 ;; Hardware stack levels required when called: 2
  4515 ;; This function calls:
  4516 ;;		Nothing
  4517 ;; This function is called by:
  4518 ;;		_main
  4519 ;; This function uses a non-reentrant model
  4520 ;;
  4521                           
  4522     01D0                     _EUSART1_Enable:	
  4523                           ;psect for function _EUSART1_Enable
  4524                           
  4525     01D0                     l1280:	
  4526                           ;incstack = 0
  4527                           ; Regs used in _EUSART1_Enable: []
  4528                           
  4529                           
  4530                           ;mcc_generated_files/uart/src/eusart1.c: 126:     RC1STAbits.SPEN = 1;
  4531     01D0  014C               	movlb	12	; select bank12
  4532     01D1  1790               	bsf	16,7	;volatile
  4533     01D2                     l285:
  4534     01D2  0008               	return
  4535     01D3                     __end_of_EUSART1_Enable:
  4536                           
  4537                           	psect	intentry
  4538     0004                     __pintentry:	
  4539 ;; *************** function _INTERRUPT_InterruptManager *****************
  4540 ;; Defined at:
  4541 ;;		line 59 in file "mcc_generated_files/system/src/interrupt.c"
  4542 ;; Parameters:    Size  Location     Type
  4543 ;;		None
  4544 ;; Auto vars:     Size  Location     Type
  4545 ;;		None
  4546 ;; Return value:  Size  Location     Type
  4547 ;;                  1    wreg      void 
  4548 ;; Registers used:
  4549 ;;		status,2, status,0, pclath, cstack
  4550 ;; Tracked objects:
  4551 ;;		On entry : 0/0
  4552 ;;		On exit  : 0/0
  4553 ;;		Unchanged: 0/0
  4554 ;; Data sizes:     COMMON   BANK0   BANK1   BANK2   BANK3   BANK4   BANK5   BANK6   BANK7   BANK8   BANK9  BANK10  BANK1
      +1  BANK12  BANK13  BANK14  BANK15  BANK16  BANK17  BANK18  BANK19  BANK20  BANK21  BANK22  BANK23  BANK24  BANK25
  4555 ;;      Params:         0       0       0       0       0       0       0       0       0       0       0       0       
      +0       0       0       0       0       0       0       0       0       0       0       0       0       0       0
  4556 ;;      Locals:         0       0       0       0       0       0       0       0       0       0       0       0       
      +0       0       0       0       0       0       0       0       0       0       0       0       0       0       0
  4557 ;;      Temps:          0       0       0       0       0       0       0       0       0       0       0       0       
      +0       0       0       0       0       0       0       0       0       0       0       0       0       0       0
  4558 ;;      Totals:         0       0       0       0       0       0       0       0       0       0       0       0       
      +0       0       0       0       0       0       0       0       0       0       0       0       0       0       0
  4559 ;;Total ram usage:        0 bytes
  4560 ;; Hardware stack levels used: 1
  4561 ;; Hardware stack levels required when called: 1
  4562 ;; This function calls:
  4563 ;;		_PIN_MANAGER_IOC
  4564 ;; This function is called by:
  4565 ;;		Interrupt level 1
  4566 ;; This function uses a non-reentrant model
  4567 ;;
  4568                           
  4569     0004                     _INTERRUPT_InterruptManager:
  4570                           
  4571                           ;incstack = 0
  4572     0004  147E               	bsf	int$flags,0	;set compiler interrupt flag (level 1)
  4573                           
  4574                           ; Regs used in _INTERRUPT_InterruptManager: [status,2+status,0+pclath+cstack]
  4575     0005  3180               	pagesel	$
  4576     0006                     i1l1106:
  4577                           
  4578                           ;mcc_generated_files/system/src/interrupt.c: 62:     if(PIE0bits.IOCIE == 1 && PIR0bits.
      +                          IOCIF == 1)
  4579     0006  0141               	movlb	1	; select bank1
  4580     0007  1E16               	btfss	22,4	;volatile
  4581     0008  280A               	goto	u8_21
  4582     0009  280B               	goto	u8_20
  4583     000A                     u8_21:
  4584     000A  2812               	goto	i1l43
  4585     000B                     u8_20:
  4586     000B                     i1l1108:
  4587     000B  1E0C               	btfss	12,4	;volatile
  4588     000C  280E               	goto	u9_21
  4589     000D  280F               	goto	u9_20
  4590     000E                     u9_21:
  4591     000E  2812               	goto	i1l43
  4592     000F                     u9_20:
  4593     000F                     i1l1110:
  4594                           
  4595                           ;mcc_generated_files/system/src/interrupt.c: 63:     {;mcc_generated_files/system/src/in
      +                          terrupt.c: 64:         PIN_MANAGER_IOC();
  4596     000F  3181  21D4  3180   	fcall	_PIN_MANAGER_IOC
  4597     0012                     i1l43:	
  4598                           ;mcc_generated_files/system/src/interrupt.c: 65:     }
  4599                           
  4600     0012  107E               	bcf	int$flags,0	;clear compiler interrupt flag (level 1)
  4601     0013  0009               	retfie
  4602     0014                     __end_of_INTERRUPT_InterruptManager:
  4603                           
  4604                           	psect	text19
  4605     01D4                     __ptext19:	
  4606 ;; *************** function _PIN_MANAGER_IOC *****************
  4607 ;; Defined at:
  4608 ;;		line 131 in file "mcc_generated_files/system/src/pins.c"
  4609 ;; Parameters:    Size  Location     Type
  4610 ;;		None
  4611 ;; Auto vars:     Size  Location     Type
  4612 ;;		None
  4613 ;; Return value:  Size  Location     Type
  4614 ;;                  1    wreg      void 
  4615 ;; Registers used:
  4616 ;;		None
  4617 ;; Tracked objects:
  4618 ;;		On entry : 0/0
  4619 ;;		On exit  : 0/0
  4620 ;;		Unchanged: 0/0
  4621 ;; Data sizes:     COMMON   BANK0   BANK1   BANK2   BANK3   BANK4   BANK5   BANK6   BANK7   BANK8   BANK9  BANK10  BANK1
      +1  BANK12  BANK13  BANK14  BANK15  BANK16  BANK17  BANK18  BANK19  BANK20  BANK21  BANK22  BANK23  BANK24  BANK25
  4622 ;;      Params:         0       0       0       0       0       0       0       0       0       0       0       0       
      +0       0       0       0       0       0       0       0       0       0       0       0       0       0       0
  4623 ;;      Locals:         0       0       0       0       0       0       0       0       0       0       0       0       
      +0       0       0       0       0       0       0       0       0       0       0       0       0       0       0
  4624 ;;      Temps:          0       0       0       0       0       0       0       0       0       0       0       0       
      +0       0       0       0       0       0       0       0       0       0       0       0       0       0       0
  4625 ;;      Totals:         0       0       0       0       0       0       0       0       0       0       0       0       
      +0       0       0       0       0       0       0       0       0       0       0       0       0       0       0
  4626 ;;Total ram usage:        0 bytes
  4627 ;; Hardware stack levels used: 1
  4628 ;; This function calls:
  4629 ;;		Nothing
  4630 ;; This function is called by:
  4631 ;;		_INTERRUPT_InterruptManager
  4632 ;; This function uses a non-reentrant model
  4633 ;;
  4634                           
  4635     01D4                     _PIN_MANAGER_IOC:	
  4636                           ;psect for function _PIN_MANAGER_IOC
  4637                           
  4638     01D4                     i1l160:	
  4639                           ;incstack = 0
  4640                           ; Regs used in _PIN_MANAGER_IOC: []
  4641                           
  4642     01D4  0008               	return
  4643     01D5                     __end_of_PIN_MANAGER_IOC:
  4644     007E                     btemp	set	126	;btemp
  4645     007E                     int$flags	set	126
  4646     007E                     wtemp0	set	126
  4647                           
  4648                           	psect	config
  4649                           
  4650                           ;Config register CONFIG1 @ 0x8007
  4651                           ;	External Oscillator Selection bits
  4652                           ;	FEXTOSC = ECL, EC (external clock) below 16 MHz
  4653                           ;	Reset Oscillator Selection bits
  4654                           ;	RSTOSC = HFINTOSC_1MHz, HFINTOSC (1MHz)
  4655                           ;	Clock Out Enable bit
  4656                           ;	CLKOUTEN = OFF, CLKOUT function is disabled; i/o or oscillator function on OSC2
  4657                           ;	VDD Range Analog Calibration Selection bit
  4658                           ;	VDDAR = HI, Internal analog systems are calibrated for operation between VDD = 2.3 - 5
      +                          .5V
  4659     8007                     	org	32775
  4660     8007  3FED               	dw	16365
  4661                           
  4662                           ;Config register CONFIG2 @ 0x8008
  4663                           ;	Master Clear Enable bit
  4664                           ;	MCLRE = EXTMCLR, If LVP = 0, MCLR pin is MCLR; If LVP = 1, RA3 pin function is MCLR
  4665                           ;	Power-up Timer Selection bits
  4666                           ;	PWRTS = PWRT_OFF, PWRT is disabled
  4667                           ;	WDT Operating Mode bits
  4668                           ;	WDTE = OFF, WDT disabled; SEN is ignored
  4669                           ;	Brown-out Reset Enable bits
  4670                           ;	BOREN = ON, Brown-out Reset enabled, SBOREN bit is ignored
  4671                           ;	DAC Buffer Automatic Range Select Enable bit
  4672                           ;	DACAUTOEN = OFF, DAC Buffer reference range is determined by the REFRNG bit
  4673                           ;	Brown-out Reset Voltage Selection bit
  4674                           ;	BORV = LO, Brown-out Reset Voltage (VBOR) set to 1.9V
  4675                           ;	ZCD Disable bit
  4676                           ;	ZCD = OFF, ZCD module is disabled; ZCD can be enabled by setting the ZCDSEN bit of ZCD
      +                          CON
  4677                           ;	PPSLOCKED One-Way Set Enable bit
  4678                           ;	PPS1WAY = ON, The PPSLOCKED bit can be cleared and set only once after an unlocking se
      +                          quence is executed; once PPSLOCKED is set, all future changes to PPS registers are preve
      +                          nted
  4679                           ;	Stack Overflow/Underflow Reset Enable bit
  4680                           ;	STVREN = ON, Stack Overflow or Underflow will cause a reset
  4681     8008                     	org	32776
  4682     8008  3FE7               	dw	16359
  4683                           
  4684                           ;Config register CONFIG4 @ 0x800A
  4685                           ;	Boot Block Size Selection bits
  4686                           ;	BBSIZE = BB512, 512 words boot block size
  4687                           ;	Boot Block Enable bit
  4688                           ;	BBEN = OFF, Boot Block disabled
  4689                           ;	Storage Area Flash (SAF) Enable bit
  4690                           ;	SAFEN = OFF, SAF disabled
  4691                           ;	Application Block Write Protection bit
  4692                           ;	WRTAPP = OFF, Application Block is NOT write protected
  4693                           ;	Boot Block Write Protection bit
  4694                           ;	WRTB = OFF, Boot Block is NOT write protected
  4695                           ;	Configuration Register Write Protection bit
  4696                           ;	WRTC = OFF, Configuration Register is NOT write protected
  4697                           ;	Data EEPROM Write-Protection bit
  4698                           ;	WRTD = OFF, Data EEPROM is NOT write-protected
  4699                           ;	Storage Area Flash (SAF) Write Protection bit
  4700                           ;	WRTSAF = OFF, SAF is NOT write protected
  4701                           ;	Low Voltage Programming Enable bit
  4702                           ;	LVP = ON, Low Voltage programming enabled. MCLR/Vpp pin function is MCLR. MCLRE Config
      +                          uration bit is ignored
  4703     800A                     	org	32778
  4704     800A  3FFF               	dw	16383
  4705                           
  4706                           ;Config register CONFIG5 @ 0x800B
  4707                           ;	Program Flash Memory Code Protection bit
  4708                           ;	CP = OFF, Program Flash Memory code protection is disabled
  4709                           ;	Data EEPROM Code Protection bit
  4710                           ;	CPD = OFF, EEPROM code protection is disabled
  4711     800B                     	org	32779
  4712     800B  3FFF               	dw	16383

Data Sizes:
    Strings     0
    Constant    48
    Data        14
    BSS         8
    Persistent  32
    Stack       0

Auto Spaces:
    Space          Size  Autos    Used
    COMMON           14      7      13
    BANK0            80     16      32
    BANK1            80      0       0
    BANK2            80      0       0
    BANK3            80      0       0
    BANK4            80      0       0
    BANK5            80      0       0
    BANK6            80      0       0
    BANK7            80      0       0
    BANK8            80      0       0
    BANK9            80      0       0
    BANK10           80      0       0
    BANK11           80      0       0
    BANK12           80      0       0
    BANK13           80      0       0
    BANK14           80      0       0
    BANK15           80      0       0
    BANK16           80      0       0
    BANK17           80      0       0
    BANK18           80      0       0
    BANK19           80      0       0
    BANK20           80      0       0
    BANK21           80      0       0
    BANK22           80      0       0
    BANK23           80      0       0
    BANK24           80      0       0
    BANK25           32      0       0

Pointer List with Targets:

    S294$20$0	PTR FTN()void  size(2) Largest target is 1
		 -> EUSART1_DefaultFramingErrorCallback(), 

    S294$21$0	PTR FTN()void  size(2) Largest target is 1
		 -> EUSART1_DefaultOverrunErrorCallback(), 

    strlen@s	PTR const unsigned char  size(1) Largest target is 14
		 -> main@msg(BANK0[14]), 

    strlen@a	PTR const unsigned char  size(1) Largest target is 14
		 -> main@msg(BANK0[14]), 

    EUSART1_OverrunErrorCallbackRegister@callbackHandler	PTR FTN()void  size(2) Largest target is 1
		 -> EUSART1_DefaultOverrunErrorCallback(), 

    EUSART1_FramingErrorCallbackRegister@callbackHandler	PTR FTN()void  size(2) Largest target is 1
		 -> EUSART1_DefaultFramingErrorCallback(), 

    EUSART1_FramingErrorHandler	PTR FTN()void  size(2) Largest target is 1
		 -> EUSART1_DefaultFramingErrorCallback(), NULL(), 

    EUSART1_OverrunErrorHandler	PTR FTN()void  size(2) Largest target is 1
		 -> EUSART1_DefaultOverrunErrorCallback(), NULL(), 

    S294$EventCallbackRegister	PTR FTN(PTR FTN()void ,)void  size(2) Largest target is 1
		 -> NULL(), 

    UART1.EventCallbackRegister	PTR FTN(PTR FTN()void ,)void  size(2) Largest target is 1
		 -> NULL(), 

    S294$ParityErrorCallbackRegister	PTR FTN(PTR FTN()void ,)void  size(2) Largest target is 1
		 -> NULL(), 

    UART1.ParityErrorCallbackRegister	PTR FTN(PTR FTN()void ,)void  size(2) Largest target is 1
		 -> NULL(), 

    S294$OverrunErrorCallbackRegister	PTR FTN(PTR FTN()void ,)void  size(2) Largest target is 1
		 -> EUSART1_OverrunErrorCallbackRegister(), 

    UART1.OverrunErrorCallbackRegister	PTR FTN(PTR FTN()void ,)void  size(2) Largest target is 1
		 -> EUSART1_OverrunErrorCallbackRegister(), 

    S294$FramingErrorCallbackRegister	PTR FTN(PTR FTN()void ,)void  size(2) Largest target is 1
		 -> EUSART1_FramingErrorCallbackRegister(), 

    UART1.FramingErrorCallbackRegister	PTR FTN(PTR FTN()void ,)void  size(2) Largest target is 1
		 -> EUSART1_FramingErrorCallbackRegister(), 

    S294$TxCollisionCallbackRegister	PTR FTN(PTR FTN()void ,)void  size(2) Largest target is 1
		 -> NULL(), 

    UART1.TxCollisionCallbackRegister	PTR FTN(PTR FTN()void ,)void  size(2) Largest target is 1
		 -> NULL(), 

    S294$RxCompleteCallbackRegister	PTR FTN(PTR FTN()void ,)void  size(2) Largest target is 1
		 -> NULL(), 

    UART1.RxCompleteCallbackRegister	PTR FTN(PTR FTN()void ,)void  size(2) Largest target is 1
		 -> NULL(), 

    S294$TxCompleteCallbackRegister	PTR FTN(PTR FTN()void ,)void  size(2) Largest target is 1
		 -> NULL(), 

    UART1.TxCompleteCallbackRegister	PTR FTN(PTR FTN()void ,)void  size(2) Largest target is 1
		 -> NULL(), 

    S294$ErrorGet	PTR FTN()unsigned int  size(2) Largest target is 2
		 -> EUSART1_ErrorGet(), 

    UART1.ErrorGet	PTR FTN()unsigned int  size(2) Largest target is 2
		 -> EUSART1_ErrorGet(), 

    S294$BaudRateGet	PTR FTN()unsigned long  size(2) Largest target is 1
		 -> NULL(), 

    UART1.BaudRateGet	PTR FTN()unsigned long  size(2) Largest target is 1
		 -> NULL(), 

    S294$BaudRateSet	PTR FTN(unsigned long ,)void  size(2) Largest target is 1
		 -> NULL(), 

    UART1.BaudRateSet	PTR FTN(unsigned long ,)void  size(2) Largest target is 1
		 -> NULL(), 

    S294$BRGCountGet	PTR FTN()unsigned long  size(2) Largest target is 1
		 -> NULL(), 

    UART1.BRGCountGet	PTR FTN()unsigned long  size(2) Largest target is 1
		 -> NULL(), 

    S294$BRGCountSet	PTR FTN(unsigned long ,)void  size(2) Largest target is 1
		 -> NULL(), 

    UART1.BRGCountSet	PTR FTN(unsigned long ,)void  size(2) Largest target is 1
		 -> NULL(), 

    S294$AutoBaudEventEnableGet	PTR FTN()_Bool  size(2) Largest target is 1
		 -> NULL(), 

    UART1.AutoBaudEventEnableGet	PTR FTN()_Bool  size(2) Largest target is 1
		 -> NULL(), 

    S294$AutoBaudQuery	PTR FTN()_Bool  size(2) Largest target is 1
		 -> EUSART1_AutoBaudQuery(), 

    UART1.AutoBaudQuery	PTR FTN()_Bool  size(2) Largest target is 1
		 -> EUSART1_AutoBaudQuery(), 

    S294$AutoBaudSet	PTR FTN(_Bool ,)void  size(2) Largest target is 1
		 -> EUSART1_AutoBaudSet(), 

    UART1.AutoBaudSet	PTR FTN(_Bool ,)void  size(2) Largest target is 1
		 -> EUSART1_AutoBaudSet(), 

    S294$TransmitDisable	PTR FTN()void  size(2) Largest target is 1
		 -> EUSART1_TransmitDisable(), 

    UART1.TransmitDisable	PTR FTN()void  size(2) Largest target is 1
		 -> EUSART1_TransmitDisable(), 

    S294$TransmitEnable	PTR FTN()void  size(2) Largest target is 1
		 -> EUSART1_TransmitEnable(), 

    UART1.TransmitEnable	PTR FTN()void  size(2) Largest target is 1
		 -> EUSART1_TransmitEnable(), 

    S294$IsTxDone	PTR FTN()_Bool  size(2) Largest target is 1
		 -> EUSART1_IsTxDone(), 

    UART1.IsTxDone	PTR FTN()_Bool  size(2) Largest target is 1
		 -> EUSART1_IsTxDone(), 

    S294$IsTxReady	PTR FTN()_Bool  size(2) Largest target is 1
		 -> EUSART1_IsTxReady(), 

    UART1.IsTxReady	PTR FTN()_Bool  size(2) Largest target is 1
		 -> EUSART1_IsTxReady(), 

    S294$IsRxReady	PTR FTN()_Bool  size(2) Largest target is 1
		 -> EUSART1_IsRxReady(), 

    UART1.IsRxReady	PTR FTN()_Bool  size(2) Largest target is 1
		 -> EUSART1_IsRxReady(), 

    S294$Write	PTR FTN(unsigned char ,)void  size(2) Largest target is 1
		 -> EUSART1_Write(), 

    UART1.Write	PTR FTN(unsigned char ,)void  size(2) Largest target is 1
		 -> EUSART1_Write(), 

    S294$Read	PTR FTN()unsigned char  size(2) Largest target is 1
		 -> EUSART1_Read(), 

    UART1.Read	PTR FTN()unsigned char  size(2) Largest target is 1
		 -> EUSART1_Read(), 

    S294$Deinitialize	PTR FTN()void  size(2) Largest target is 1
		 -> EUSART1_Deinitialize(), 

    UART1.Deinitialize	PTR FTN()void  size(2) Largest target is 1
		 -> EUSART1_Deinitialize(), 

    S294$Initialize	PTR FTN()void  size(2) Largest target is 1
		 -> EUSART1_Initialize(), 

    UART1.Initialize	PTR FTN()void  size(2) Largest target is 1
		 -> EUSART1_Initialize(), 

    INT_SetInterruptHandler@InterruptHandler	PTR FTN()void  size(2) Largest target is 1
		 -> INT_DefaultInterruptHandler(), 

    INT_InterruptHandler	PTR FTN()void  size(2) Largest target is 1
		 -> NULL(), INT_DefaultInterruptHandler(), 


Critical Paths under _main in COMMON

    _main->_strlen
    _INTERRUPT_Initialize->_INT_SetInterruptHandler
    _EUSART1_Initialize->_EUSART1_FramingErrorCallbackRegister
    _EUSART1_Initialize->_EUSART1_OverrunErrorCallbackRegister

Critical Paths under _INTERRUPT_InterruptManager in COMMON

    None.

Critical Paths under _main in BANK0

    None.

Critical Paths under _INTERRUPT_InterruptManager in BANK0

    None.

Critical Paths under _main in BANK1

    None.

Critical Paths under _INTERRUPT_InterruptManager in BANK1

    None.

Critical Paths under _main in BANK2

    None.

Critical Paths under _INTERRUPT_InterruptManager in BANK2

    None.

Critical Paths under _main in BANK3

    None.

Critical Paths under _INTERRUPT_InterruptManager in BANK3

    None.

Critical Paths under _main in BANK4

    None.

Critical Paths under _INTERRUPT_InterruptManager in BANK4

    None.

Critical Paths under _main in BANK5

    None.

Critical Paths under _INTERRUPT_InterruptManager in BANK5

    None.

Critical Paths under _main in BANK6

    None.

Critical Paths under _INTERRUPT_InterruptManager in BANK6

    None.

Critical Paths under _main in BANK7

    None.

Critical Paths under _INTERRUPT_InterruptManager in BANK7

    None.

Critical Paths under _main in BANK8

    None.

Critical Paths under _INTERRUPT_InterruptManager in BANK8

    None.

Critical Paths under _main in BANK9

    None.

Critical Paths under _INTERRUPT_InterruptManager in BANK9

    None.

Critical Paths under _main in BANK10

    None.

Critical Paths under _INTERRUPT_InterruptManager in BANK10

    None.

Critical Paths under _main in BANK11

    None.

Critical Paths under _INTERRUPT_InterruptManager in BANK11

    None.

Critical Paths under _main in BANK12

    None.

Critical Paths under _INTERRUPT_InterruptManager in BANK12

    None.

Critical Paths under _main in BANK13

    None.

Critical Paths under _INTERRUPT_InterruptManager in BANK13

    None.

Critical Paths under _main in BANK14

    None.

Critical Paths under _INTERRUPT_InterruptManager in BANK14

    None.

Critical Paths under _main in BANK15

    None.

Critical Paths under _INTERRUPT_InterruptManager in BANK15

    None.

Critical Paths under _main in BANK16

    None.

Critical Paths under _INTERRUPT_InterruptManager in BANK16

    None.

Critical Paths under _main in BANK17

    None.

Critical Paths under _INTERRUPT_InterruptManager in BANK17

    None.

Critical Paths under _main in BANK18

    None.

Critical Paths under _INTERRUPT_InterruptManager in BANK18

    None.

Critical Paths under _main in BANK19

    None.

Critical Paths under _INTERRUPT_InterruptManager in BANK19

    None.

Critical Paths under _main in BANK20

    None.

Critical Paths under _INTERRUPT_InterruptManager in BANK20

    None.

Critical Paths under _main in BANK21

    None.

Critical Paths under _INTERRUPT_InterruptManager in BANK21

    None.

Critical Paths under _main in BANK22

    None.

Critical Paths under _INTERRUPT_InterruptManager in BANK22

    None.

Critical Paths under _main in BANK23

    None.

Critical Paths under _INTERRUPT_InterruptManager in BANK23

    None.

Critical Paths under _main in BANK24

    None.

Critical Paths under _INTERRUPT_InterruptManager in BANK24

    None.

Critical Paths under _main in BANK25

    None.

Critical Paths under _INTERRUPT_InterruptManager in BANK25

    None.

Call Graph Tables:

 ---------------------------------------------------------------------------------
 (Depth) Function   	        Calls       Base Space   Used Autos Params    Refs
 ---------------------------------------------------------------------------------
 (0) _main                                                19    19      0     720
                                              5 COMMON     2     2      0
                                              0 BANK0     16    16      0
                     _EUSART1_Enable
                   _EUSART1_IsTxDone
                       _EUSART1_Read
              _EUSART1_ReceiveEnable
             _EUSART1_TransmitEnable
                      _EUSART1_Write
                  _SYSTEM_Initialize
                             _strlen
 ---------------------------------------------------------------------------------
 (1) _strlen                                               5     3      2     123
                                              0 COMMON     5     3      2
 ---------------------------------------------------------------------------------
 (1) _SYSTEM_Initialize                                    0     0      0     338
                   _CLOCK_Initialize
                 _EUSART1_Initialize
               _INTERRUPT_Initialize
             _PIN_MANAGER_Initialize
 ---------------------------------------------------------------------------------
 (2) _PIN_MANAGER_Initialize                               0     0      0       0
 ---------------------------------------------------------------------------------
 (2) _INTERRUPT_Initialize                                 0     0      0      98
            _INT_SetInterruptHandler
 ---------------------------------------------------------------------------------
 (3) _INT_SetInterruptHandler                              2     0      2      98
                                              0 COMMON     2     0      2
 ---------------------------------------------------------------------------------
 (2) _EUSART1_Initialize                                   0     0      0     240
_EUSART1_FramingErrorCallbackRegiste
_EUSART1_OverrunErrorCallbackRegiste
 ---------------------------------------------------------------------------------
 (3) _EUSART1_OverrunErrorCallbackRegister                 2     0      2     120
                                              0 COMMON     2     0      2
 ---------------------------------------------------------------------------------
 (3) _EUSART1_FramingErrorCallbackRegister                 2     0      2     120
                                              0 COMMON     2     0      2
 ---------------------------------------------------------------------------------
 (2) _CLOCK_Initialize                                     0     0      0       0
 ---------------------------------------------------------------------------------
 (1) _EUSART1_Write                                        1     0      1      98
                                              0 COMMON     1     0      1
 ---------------------------------------------------------------------------------
 (1) _EUSART1_TransmitEnable                               0     0      0       0
 ---------------------------------------------------------------------------------
 (1) _EUSART1_ReceiveEnable                                0     0      0       0
 ---------------------------------------------------------------------------------
 (1) _EUSART1_Read                                         0     0      0       0
                                NULL *
_EUSART1_DefaultFramingErrorCallback *
_EUSART1_DefaultOverrunErrorCallback *
 ---------------------------------------------------------------------------------
 (2) _EUSART1_DefaultOverrunErrorCallback                  0     0      0       0
 ---------------------------------------------------------------------------------
 (2) _EUSART1_DefaultFramingErrorCallback                  0     0      0       0
 ---------------------------------------------------------------------------------
 (2) NULL(Fake)                                            0     0      0       0
 ---------------------------------------------------------------------------------
 (1) _EUSART1_IsTxDone                                     0     0      0       0
 ---------------------------------------------------------------------------------
 (1) _EUSART1_Enable                                       0     0      0       0
 ---------------------------------------------------------------------------------
 Estimated maximum stack depth 3
 ---------------------------------------------------------------------------------
 (Depth) Function   	        Calls       Base Space   Used Autos Params    Refs
 ---------------------------------------------------------------------------------
 (4) _INTERRUPT_InterruptManager                           0     0      0       0
                    _PIN_MANAGER_IOC
 ---------------------------------------------------------------------------------
 (5) _PIN_MANAGER_IOC                                      0     0      0       0
 ---------------------------------------------------------------------------------
 Estimated maximum stack depth 5
 ---------------------------------------------------------------------------------

 Call Graph Graphs:

 _main (ROOT)
   _EUSART1_Enable
   _EUSART1_IsTxDone
   _EUSART1_Read
     NULL(Fake) *
     _EUSART1_DefaultFramingErrorCallback *
     _EUSART1_DefaultOverrunErrorCallback *
   _EUSART1_ReceiveEnable
   _EUSART1_TransmitEnable
   _EUSART1_Write
   _SYSTEM_Initialize
     _CLOCK_Initialize
     _EUSART1_Initialize
       _EUSART1_FramingErrorCallbackRegister
       _EUSART1_OverrunErrorCallbackRegister
     _INTERRUPT_Initialize
       _INT_SetInterruptHandler
     _PIN_MANAGER_Initialize
   _strlen

 _INTERRUPT_InterruptManager (ROOT)
   _PIN_MANAGER_IOC

 Address spaces:
Name               Size   Autos  Total    Cost      Usage
BIGRAM             7F0      0       0       0        0.0%
EEDATA             100      0       0       0        0.0%
NULL                 0      0       0       0        0.0%
CODE                 0      0       0       0        0.0%
BITCOMMON            E      0       0       1        0.0%
BITSFR0              0      0       0       1        0.0%
SFR0                 0      0       0       1        0.0%
COMMON               E      7       D       2       92.9%
BITSFR1              0      0       0       2        0.0%
SFR1                 0      0       0       2        0.0%
BITSFR2              0      0       0       3        0.0%
SFR2                 0      0       0       3        0.0%
STACK                0      0       0       3        0.0%
BITBANK0            50      0       0       4        0.0%
BITSFR3              0      0       0       4        0.0%
SFR3                 0      0       0       4        0.0%
BANK0               50     10      20       5       40.0%
BITSFR4              0      0       0       5        0.0%
SFR4                 0      0       0       5        0.0%
BITSFR5              0      0       0       6        0.0%
SFR5                 0      0       0       6        0.0%
ABS                  0      0      2D       6        0.0%
BITBANK1            50      0       0       7        0.0%
BITSFR6              0      0       0       7        0.0%
SFR6                 0      0       0       7        0.0%
BANK1               50      0       0       8        0.0%
BITSFR7              0      0       0       8        0.0%
SFR7                 0      0       0       8        0.0%
BITBANK2            50      0       0       9        0.0%
BITSFR8              0      0       0       9        0.0%
SFR8                 0      0       0       9        0.0%
BANK2               50      0       0      10        0.0%
BITSFR9              0      0       0      10        0.0%
SFR9                 0      0       0      10        0.0%
BITBANK3            50      0       0      11        0.0%
BITSFR10             0      0       0      11        0.0%
SFR10                0      0       0      11        0.0%
BANK3               50      0       0      12        0.0%
BITSFR11             0      0       0      12        0.0%
SFR11                0      0       0      12        0.0%
BITBANK4            50      0       0      13        0.0%
BITSFR12             0      0       0      13        0.0%
SFR12                0      0       0      13        0.0%
BANK4               50      0       0      14        0.0%
BITSFR13             0      0       0      14        0.0%
SFR13                0      0       0      14        0.0%
BITBANK5            50      0       0      15        0.0%
BITSFR14             0      0       0      15        0.0%
SFR14                0      0       0      15        0.0%
BANK5               50      0       0      16        0.0%
BITSFR15             0      0       0      16        0.0%
SFR15                0      0       0      16        0.0%
BITBANK6            50      0       0      17        0.0%
BITSFR16             0      0       0      17        0.0%
SFR16                0      0       0      17        0.0%
BANK6               50      0       0      18        0.0%
BITSFR17             0      0       0      18        0.0%
SFR17                0      0       0      18        0.0%
BITBANK7            50      0       0      19        0.0%
BITSFR18             0      0       0      19        0.0%
SFR18                0      0       0      19        0.0%
BANK7               50      0       0      20        0.0%
BITSFR19             0      0       0      20        0.0%
SFR19                0      0       0      20        0.0%
BITBANK8            50      0       0      21        0.0%
BITSFR20             0      0       0      21        0.0%
SFR20                0      0       0      21        0.0%
BANK8               50      0       0      22        0.0%
BITSFR21             0      0       0      22        0.0%
SFR21                0      0       0      22        0.0%
BITBANK9            50      0       0      23        0.0%
BITSFR22             0      0       0      23        0.0%
SFR22                0      0       0      23        0.0%
BANK9               50      0       0      24        0.0%
BITSFR23             0      0       0      24        0.0%
SFR23                0      0       0      24        0.0%
BITBANK10           50      0       0      25        0.0%
BITSFR24             0      0       0      25        0.0%
SFR24                0      0       0      25        0.0%
BANK10              50      0       0      26        0.0%
BITSFR25             0      0       0      26        0.0%
SFR25                0      0       0      26        0.0%
BITBANK11           50      0       0      27        0.0%
BITSFR26             0      0       0      27        0.0%
SFR26                0      0       0      27        0.0%
BANK11              50      0       0      28        0.0%
BITSFR27             0      0       0      28        0.0%
SFR27                0      0       0      28        0.0%
BITBANK12           50      0       0      29        0.0%
BITSFR28             0      0       0      29        0.0%
SFR28                0      0       0      29        0.0%
BANK12              50      0       0      30        0.0%
BITSFR29             0      0       0      30        0.0%
SFR29                0      0       0      30        0.0%
BITBANK13           50      0       0      31        0.0%
BITSFR30             0      0       0      31        0.0%
SFR30                0      0       0      31        0.0%
BANK13              50      0       0      32        0.0%
BITSFR31             0      0       0      32        0.0%
SFR31                0      0       0      32        0.0%
BITBANK14           50      0       0      33        0.0%
BITSFR32             0      0       0      33        0.0%
SFR32                0      0       0      33        0.0%
BANK14              50      0       0      34        0.0%
BITSFR33             0      0       0      34        0.0%
SFR33                0      0       0      34        0.0%
BITBANK15           50      0       0      35        0.0%
BITSFR34             0      0       0      35        0.0%
SFR34                0      0       0      35        0.0%
BANK15              50      0       0      36        0.0%
BITSFR35             0      0       0      36        0.0%
SFR35                0      0       0      36        0.0%
BITBANK16           50      0       0      37        0.0%
BITSFR36             0      0       0      37        0.0%
SFR36                0      0       0      37        0.0%
BANK16              50      0       0      38        0.0%
BITSFR37             0      0       0      38        0.0%
SFR37                0      0       0      38        0.0%
BITBANK17           50      0       0      39        0.0%
BITSFR38             0      0       0      39        0.0%
SFR38                0      0       0      39        0.0%
BANK17              50      0       0      40        0.0%
BITSFR39             0      0       0      40        0.0%
SFR39                0      0       0      40        0.0%
BITBANK18           50      0       0      41        0.0%
BITSFR40             0      0       0      41        0.0%
SFR40                0      0       0      41        0.0%
BANK18              50      0       0      42        0.0%
BITSFR41             0      0       0      42        0.0%
SFR41                0      0       0      42        0.0%
BITBANK19           50      0       0      43        0.0%
BITSFR42             0      0       0      43        0.0%
SFR42                0      0       0      43        0.0%
BANK19              50      0       0      44        0.0%
BITSFR43             0      0       0      44        0.0%
SFR43                0      0       0      44        0.0%
BITBANK20           50      0       0      45        0.0%
BITSFR44             0      0       0      45        0.0%
SFR44                0      0       0      45        0.0%
BANK20              50      0       0      46        0.0%
BITSFR45             0      0       0      46        0.0%
SFR45                0      0       0      46        0.0%
BITBANK21           50      0       0      47        0.0%
BITSFR46             0      0       0      47        0.0%
SFR46                0      0       0      47        0.0%
BANK21              50      0       0      48        0.0%
BITSFR47             0      0       0      48        0.0%
SFR47                0      0       0      48        0.0%
BITBANK22           50      0       0      49        0.0%
BITSFR48             0      0       0      49        0.0%
SFR48                0      0       0      49        0.0%
BANK22              50      0       0      50        0.0%
BITSFR49             0      0       0      50        0.0%
SFR49                0      0       0      50        0.0%
BITBANK23           50      0       0      51        0.0%
BITSFR50             0      0       0      51        0.0%
SFR50                0      0       0      51        0.0%
BANK23              50      0       0      52        0.0%
BITSFR51             0      0       0      52        0.0%
SFR51                0      0       0      52        0.0%
BITBANK24           50      0       0      53        0.0%
BITSFR52             0      0       0      53        0.0%
SFR52                0      0       0      53        0.0%
BANK24              50      0       0      54        0.0%
BITSFR53             0      0       0      54        0.0%
SFR53                0      0       0      54        0.0%
BITBANK25           20      0       0      55        0.0%
BITSFR54             0      0       0      55        0.0%
SFR54                0      0       0      55        0.0%
BANK25              20      0       0      56        0.0%
BITSFR55             0      0       0      56        0.0%
SFR55                0      0       0      56        0.0%
BITSFR56             0      0       0      57        0.0%
SFR56                0      0       0      57        0.0%
DATA                 0      0      2D      57        0.0%
BITSFR57             0      0       0      58        0.0%
SFR57                0      0       0      58        0.0%
BITSFR58             0      0       0      59        0.0%
SFR58                0      0       0      59        0.0%
BITSFR59             0      0       0      60        0.0%
SFR59                0      0       0      60        0.0%
BITSFR60             0      0       0      61        0.0%
SFR60                0      0       0      61        0.0%
BITSFR61             0      0       0      62        0.0%
SFR61                0      0       0      62        0.0%
BITSFR62             0      0       0      63        0.0%
SFR62                0      0       0      63        0.0%
BITSFR63             0      0       0      64        0.0%
SFR63                0      0       0      64        0.0%


Microchip Technology PIC Macro Assembler V2.41 build 20230208172133 
Symbol Table                                                                                   Mon Jan 15 21:58:20 2024

                                                 l17 01B2                                                   l36 0192  
                                                 l53 01BD                                                  l200 0053  
                                                l203 005A                                                  l331 01C9  
                                                l171 0187                                                  l341 0139  
                                                l157 00DF                                                  l350 01C5  
                                                l344 01C1                                                  l354 01A8  
                                                l347 01D3                                                  l291 01CC  
                                                l285 01D2                                                  l358 019D  
                                                l279 0155                                                  l297 01CF  
                                                l972 016C                                                  u200 01A4  
                                                u201 01A3                                                  u210 0199  
                                                u211 0198                                                  u220 0118  
                                                u300 0061                                                  u221 0117  
                                                u301 0060                                                  u230 0120  
                                                u310 0079                                                  u231 011F  
                                                u311 0078                                                  u240 012A  
                                                u320 0090                                                  u241 0129  
                                                u321 008F                                                  u250 0132  
                                                u251 0131                                                  u260 0166  
                                                u261 0165                                                  u325 008C  
                                                u270 0044                                                  u280 0053  
                                                u337 006E                                                  u281 0052  
                                                u290 005A                                                  u291 0059  
                                                wreg 0009                                         _BAUD1CONbits 0612  
                                               l1200 0199                                                 l1210 01AF  
                                               l1202 01A9                                                 l1300 012C  
                                               l1212 01B0                                                 l1204 01AC  
                                               l1220 0093                                                 l1310 01C6  
                                               l1302 0132                                                 l1214 01B1  
                                               l1206 01AD                                                 l1230 00A1  
                                               l1222 0099                                                 l1304 0137  
                                               l1208 01AE                                                 l1216 0188  
                                               l1240 00AC                                                 l1232 00A3  
                                               l1224 009B                                                 l1320 0166  
                                               l1218 018B                                                 l1250 00C0  
                                               l1242 00B8                                                 l1234 00A6  
                                               l1226 009D                                                 l1314 0157  
                                               l1330 0037                                                 l1308 01BE  
                                               l1260 00CA                                                 l1252 00C2  
                                               l1244 00BA                                                 l1236 00A8  
                                               l1228 009F                                                 l1316 015A  
                                               l1340 0054                                                 l1332 003A  
                                               l1324 002E                                                 l1270 0144  
                                               l1262 00CC                                                 l1254 00C4  
                                               l1246 00BC                                                 l1238 00AA  
                                               l1318 015E                                                 l1350 0071  
                                               l1342 005B                                                 l1334 0048  
                                               l1326 0031                                                 l1280 01D0  
                                               l1272 014B                                                 l1192 01B9  
                                               l1264 00CF                                                 l1256 00C6  
                                               l1248 00BE                                                 l1352 0079  
                                               l1344 0061                                                 l1336 0048  
                                               l1328 0034                                                 l1290 0118  
                                               l1282 01CA                                                 l1194 019E  
                                               l1274 0152                                                 l1266 013A  
                                               l1258 00C8                                                 l1346 0063  
                                               l1354 007E                                                 l1338 004D  
                                               l1276 01C2                                                 l1292 011A  
                                               l1284 01CD                                                 l1196 01A4  
                                               l1268 0143                                                 l1348 006D  
                                               l1294 0120                                                 l1286 0110  
                                               l1198 0193                                                 l1278 017B  
                                               l1296 0125                                                 l1288 0113  
                                               l1298 012A                                                 _LATA 0018  
                                               _LATB 0019                                                 _LATC 001A  
                                               _LATD 001B                                                 _LATE 001C  
                                               i1l43 0012                                                 _WPUA 1E8D  
                                               _WPUB 1E97                                                 _WPUC 1EA1  
                                               _WPUD 1EAB                                                 _WPUE 1EB5  
                                               u8_20 000B                                                 u8_21 000A  
                                      _EUSART1_Write 01BE                                                 u9_20 000F  
                                               u9_21 000E                                                 _main 002E  
                                      ?_EUSART1_Read 0070                                                 fsr0h 0005  
                                               fsr1h 0007                                                 fsr0l 0004  
                                               indf1 0001                                                 fsr1l 0006  
                                               btemp 007E                          _INT_DefaultInterruptHandler 0000  
                                               start 0014                      __end_of_INT_SetInterruptHandler 01BE  
                                     _EUSART1_Enable 01D0                                                ?_main 0070  
                                              _IOCAF 1E93                                                _IOCBF 1E9D  
                                              _IOCCF 1EA7                                                _IOCAN 1E92  
                                              _IOCEF 1EBB                                                _IOCAP 1E91  
                                              _IOCBN 1E9C                                                _IOCBP 1E9B  
                                              _IOCCN 1EA6                                                _IOCCP 1EA5  
                                              _IOCEN 1EBA                                                _IOCEP 1EB9  
                                              i1l160 01D4                                                _OSCEN 0211  
                                              _UART1 00E0                                                _TRISA 0012  
                                              _TRISB 0013                                                _TRISC 0014  
                                              _TRISD 0015                                                _TRISE 0016  
       __end_of_EUSART1_FramingErrorCallbackRegister 01A9               ??_EUSART1_FramingErrorCallbackRegister 0072  
              ?_EUSART1_FramingErrorCallbackRegister 0070                 _EUSART1_FramingErrorCallbackRegister 019E  
                            __end_of_PIN_MANAGER_IOC 01D5                                                main@i 002E  
                                     ?_EUSART1_Write 0070                                                pclath 000A  
                                     ??_EUSART1_Read 0070                                _EUSART1_AutoBaudQuery 0000  
                                              status 0003                                                wtemp0 007E  
                                    __initialization 0016                           __end_of_EUSART1_Initialize 0156  
                                       __end_of_main 0093                               __end_of_EUSART1_Enable 01D3  
                        ?_INTERRUPT_InterruptManager 0070                                               ??_main 0075  
                           ??_EUSART1_TransmitEnable 0070  EUSART1_OverrunErrorCallbackRegister@callbackHandler 0070  
EUSART1_FramingErrorCallbackRegister@callbackHandler 0070                                               _ACTCON 0214  
                                             _ANSELA 1E8C                                               _ANSELB 1E96  
                                             _ANSELC 1EA0                                               _ANSELD 1EAA  
                                             _ANSELE 1EB4                                               _RC1REG 060C  
                                             _RC1STA 0610                                               i1l1110 000F  
                                             i1l1106 0006                                               i1l1108 000B  
                                             _ODCONA 1E8E                                               _ODCONB 1E98  
                                             _ODCONC 1EA2                                               _RC6PPS 1DA2  
                                             _ODCOND 1EAC                                               _ODCONE 1EB6  
                                             _INLVLA 1E90                                               _INLVLB 1E9A  
                                             _INLVLC 1EA4                                               _INLVLD 1EAE  
                                             _INLVLE 1EB8                                               _OSCFRQ 0213  
                                             _RX1PPS 1E41                                               _TX1REG 060D  
                                             _TX1STA 0611                        __end_of_EUSART1_ReceiveEnable 01D0  
                                    ?_EUSART1_Enable 0070                                    ?_CLOCK_Initialize 0070  
                                             _strlen 0156                                   ??_CLOCK_Initialize 0070  
       __end_of_EUSART1_OverrunErrorCallbackRegister 019E               ??_EUSART1_OverrunErrorCallbackRegister 0072  
              ?_EUSART1_OverrunErrorCallbackRegister 0070                 _EUSART1_OverrunErrorCallbackRegister 0193  
                                    ??_EUSART1_Write 0071              INT_SetInterruptHandler@InterruptHandler 0070  
                                   ?_PIN_MANAGER_IOC 0070                                    _SYSTEM_Initialize 017B  
                            __end_of__initialization 002A                                   ?_SYSTEM_Initialize 0070  
                                      __end_of_UART1 0110                                       __pcstackCOMMON 0070  
                                       __pidataBANK0 016D                                  ??_SYSTEM_Initialize 0072  
                               __end_of_EUSART1_Read 013A                            __end_of_SYSTEM_Initialize 0188  
                                         __pbssBANK0 003E                                           __pmaintext 002E  
                                         __pintentry 0004                                     _EUSART1_IsTxDone 01C6  
                                            ?_strlen 0070                                     _EUSART1_ErrorGet 0000  
                                            _SP1BRGH 060F                                              _SP1BRGL 060E  
                                            _OSCCON2 020E                                              _OSCCON3 020F  
                                            _OSCSTAT 0210                                              _OSCTUNE 0212  
                                            _SLRCONA 1E8F                                              _SLRCONB 1E99  
                                            _SLRCONC 1EA3                                              _SLRCOND 1EAD  
                                            _SLRCONE 1EB7                                 _EUSART1_Deinitialize 0000  
                             _EUSART1_TransmitEnable 01CA                                              __ptext1 0156  
                                            __ptext2 017B                                              __ptext3 0093  
                                            __ptext4 0188                                              __ptext5 01B9  
                                            __ptext6 013A                                              __ptext7 0193  
                                            __ptext8 019E                                              __ptext9 01A9  
                                 _EUSART1_Initialize 013A                             ??_PIN_MANAGER_Initialize 0070  
                            _INT_SetInterruptHandler 01B9                                              main@rec 002F  
                                            main@msg 0020                                 end_of_initialization 002A  
                                ?_EUSART1_Initialize 0070                                              init_ram 01B3  
                        _EUSART1_OverrunErrorHandler 0077                                              initloop 01B4  
                                   ??_EUSART1_Enable 0070                                 ??_EUSART1_Initialize 0072  
                                            strlen@a 0073                                              strlen@s 0074  
                                EUSART1_Write@txData 0070                                         _EUSART1_Read 0110  
                              _EUSART1_ReceiveEnable 01CD                         __end_of_INTERRUPT_Initialize 0193  
                          ??_INT_SetInterruptHandler 0072                                       __end_of_strlen 016D  
                                start_initialization 0016                                __end_of_EUSART1_Write 01C2  
                           __end_of_EUSART1_IsTxDone 01CA                                          __pdataBANK0 0030  
                                           ??_strlen 0072                                          __pbssCOMMON 0077  
                                          ___latbits 0003                                        __pcstackBANK0 0020  
                            ?_EUSART1_TransmitEnable 0070                               ?_EUSART1_ReceiveEnable 0070  
                             _PIN_MANAGER_Initialize 0093                         ??_INTERRUPT_InterruptManager 0070  
                                           _BAUD1CON 0612                                    _EUSART1_IsRxReady 0000  
                                  _EUSART1_IsTxReady 0000                       __end_of_EUSART1_TransmitEnable 01CD  
                               _INTERRUPT_Initialize 0188                                     _CLOCK_Initialize 01A9  
                                           _LATBbits 0019                                             _PIE0bits 0096  
                                           _PIR0bits 008C                                             _PIR3bits 008F  
                                          main@F8381 0030                                    ??_PIN_MANAGER_IOC 0070  
                              ?_INTERRUPT_Initialize 0070                                  _EUSART1_AutoBaudSet 0000  
                            _EUSART1_TransmitDisable 0000          __end_of_EUSART1_DefaultFramingErrorCallback 01D4  
              ??_EUSART1_DefaultFramingErrorCallback 0070                 ?_EUSART1_DefaultFramingErrorCallback 0070  
                _EUSART1_DefaultFramingErrorCallback 01D3                                             __ptext10 01BE  
                                           __ptext11 01CA                                             __ptext12 01CD  
                                           __ptext13 0110                                             __ptext14 01C2  
                                           __ptext15 01D3                                             __ptext16 01C6  
                                           __ptext17 01D0                                             __ptext19 01D4  
                                  ?_EUSART1_IsTxDone 0070                                   ??_EUSART1_IsTxDone 0070  
                                         _RC1STAbits 0610                                             int$flags 007E  
                 __end_of_INTERRUPT_InterruptManager 0014                           _INTERRUPT_InterruptManager 0004  
                        _EUSART1_FramingErrorHandler 0079                                           _INTCONbits 000B  
                               _INT_InterruptHandler 007B                               ??_INTERRUPT_Initialize 0072  
                                           intlevel1 0000                              ??_EUSART1_ReceiveEnable 0070  
                            ?_PIN_MANAGER_Initialize 0070                             ?_INT_SetInterruptHandler 0070  
                                 _eusart1RxLastError 003E                             __end_of_CLOCK_Initialize 01B3  
                                      __pstringtext1 00E0          __end_of_EUSART1_DefaultOverrunErrorCallback 01C6  
              ??_EUSART1_DefaultOverrunErrorCallback 0070                 ?_EUSART1_DefaultOverrunErrorCallback 0070  
                _EUSART1_DefaultOverrunErrorCallback 01C2                                           _TX1STAbits 0611  
                     __end_of_PIN_MANAGER_Initialize 00E0                                      _PIN_MANAGER_IOC 01D4  
