

Microchip MPLAB XC8 Assembler V2.41 build 20230208172133 
                                                                                               Wed Jan 17 21:49:53 2024

Microchip MPLAB XC8 C Compiler v2.41 (Free license) build 20230208172133 Og1 
     1                           	processor	16F18076
     2                           	pagewidth 120
     3                           	opt	flic
     4                           	psect	idataBANK0,global,class=CODE,delta=2,noexec
     5                           	psect	stringtext1,global,class=STRCODE,delta=2,noexec
     6                           	psect	stringtext2,global,class=STRCODE,delta=2,noexec
     7                           	psect	cinit,global,class=CODE,merge=1,delta=2
     8                           	psect	bssBANK0,global,class=BANK0,space=1,delta=1,noexec
     9                           	psect	dataBANK0,global,class=BANK0,space=1,delta=1,noexec
    10                           	psect	bssBANK2,global,class=BANK2,space=1,delta=1,noexec
    11                           	psect	clrtext,global,class=CODE,delta=2
    12                           	psect	cstackBANK1,global,class=BANK1,space=1,delta=1,noexec
    13                           	psect	cstackCOMMON,global,class=COMMON,space=1,delta=1,noexec
    14                           	psect	cstackBANK0,global,class=BANK0,space=1,delta=1,noexec
    15                           	psect	maintext,global,class=CODE,merge=1,split=1,delta=2
    16                           	psect	text1,local,class=CODE,merge=1,delta=2,group=3
    17                           	psect	text2,local,class=CODE,merge=1,delta=2,group=1
    18                           	psect	text3,local,class=CODE,merge=1,delta=2,group=1
    19                           	psect	text4,local,class=CODE,merge=1,delta=2,group=3
    20                           	psect	text5,local,class=CODE,merge=1,delta=2,group=3
    21                           	psect	text6,local,class=CODE,merge=1,delta=2
    22                           	psect	text7,local,class=CODE,merge=1,delta=2,group=3
    23                           	psect	text8,local,class=CODE,merge=1,delta=2
    24                           	psect	text9,local,class=CODE,merge=1,delta=2
    25                           	psect	text10,local,class=CODE,merge=1,delta=2
    26                           	psect	text11,local,class=CODE,merge=1,delta=2
    27                           	psect	text12,local,class=CODE,merge=1,delta=2
    28                           	psect	text13,local,class=CODE,merge=1,delta=2
    29                           	psect	text14,local,class=CODE,merge=1,delta=2
    30                           	psect	text15,local,class=CODE,merge=1,delta=2
    31                           	psect	text16,local,class=CODE,merge=1,delta=2
    32                           	psect	text17,local,class=CODE,merge=1,delta=2
    33                           	psect	text18,local,class=CODE,merge=1,delta=2
    34                           	psect	intentry,global,class=CODE,delta=2
    35                           	psect	text20,local,class=CODE,merge=1,delta=2
    36                           	psect	config,global,abs,ovrld,class=CONFIG,space=4,delta=2,noexec
    37                           	dabs	1,0x7E,2
    38     0000                     
    39                           ; Generated 22/03/2023 GMT
    40                           ; 
    41                           ; Copyright © 2023, Microchip Technology Inc. and its subsidiaries ("Microchip")
    42                           ; All rights reserved.
    43                           ; 
    44                           ; This software is developed by Microchip Technology Inc. and its subsidiaries ("Microch
      +                          ip").
    45                           ; 
    46                           ; Redistribution and use in source and binary forms, with or without modification, are
    47                           ; permitted provided that the following conditions are met:
    48                           ; 
    49                           ;     1. Redistributions of source code must retain the above copyright notice, this lis
      +                          t of
    50                           ;        conditions and the following disclaimer.
    51                           ; 
    52                           ;     2. Redistributions in binary form must reproduce the above copyright notice, this 
      +                          list
    53                           ;        of conditions and the following disclaimer in the documentation and/or other
    54                           ;        materials provided with the distribution. Publication is not required when
    55                           ;        this file is used in an embedded application.
    56                           ; 
    57                           ;     3. Microchip's name may not be used to endorse or promote products derived from th
      +                          is
    58                           ;        software without specific prior written permission.
    59                           ; 
    60                           ; THIS SOFTWARE IS PROVIDED BY MICROCHIP "AS IS" AND ANY EXPRESS OR IMPLIED WARRANTIES,
    61                           ; INCLUDING, BUT NOT LIMITED TO, THE IMPLIED WARRANTIES OF MERCHANTABILITY AND FITNESS F
      +                          OR
    62                           ; PURPOSE ARE DISCLAIMED.  IN NO EVENT SHALL MICROCHIP BE LIABLE FOR ANY DIRECT, INDIREC
      +                          T,
    63                           ; INCIDENTAL, SPECIAL, EXEMPLARY, OR CONSEQUENTIAL DAMAGES (INCLUDING BUT NOT LIMITED TO
    64                           ; PROCUREMENT OF SUBSTITUTE GOODS OR SERVICES; LOSS OF USE, DATA OR PROFITS; OR BUSINESS
    65                           ; INTERRUPTION) HOWSOEVER CAUSED AND ON ANY THEORY OF LIABILITY, WHETHER IN CONTRACT, ST
      +                          RICT
    66                           ; LIABILITY, OR TORT (INCLUDING NEGLIGENCE OR OTHERWISE) ARISING IN ANY WAY OUT OF THE U
      +                          SE OF
    67                           ; THIS SOFTWARE, EVEN IF ADVISED OF THE POSSIBILITY OF SUCH DAMAGE.
    68                           ; 
    69                           ; 
    70                           ; Code-generator required, PIC16F18076 Definitions
    71                           ; 
    72                           ; SFR Addresses
    73     0000                     	;# 
    74     0001                     	;# 
    75     0002                     	;# 
    76     0003                     	;# 
    77     0004                     	;# 
    78     0005                     	;# 
    79     0006                     	;# 
    80     0007                     	;# 
    81     0008                     	;# 
    82     0009                     	;# 
    83     000A                     	;# 
    84     000B                     	;# 
    85     000C                     	;# 
    86     000D                     	;# 
    87     000E                     	;# 
    88     000F                     	;# 
    89     0010                     	;# 
    90     0012                     	;# 
    91     0013                     	;# 
    92     0014                     	;# 
    93     0015                     	;# 
    94     0016                     	;# 
    95     0018                     	;# 
    96     0019                     	;# 
    97     001A                     	;# 
    98     001B                     	;# 
    99     001C                     	;# 
   100     008C                     	;# 
   101     008D                     	;# 
   102     008E                     	;# 
   103     008F                     	;# 
   104     0090                     	;# 
   105     0096                     	;# 
   106     0097                     	;# 
   107     0098                     	;# 
   108     0099                     	;# 
   109     009A                     	;# 
   110     018C                     	;# 
   111     018D                     	;# 
   112     018E                     	;# 
   113     018F                     	;# 
   114     019C                     	;# 
   115     019C                     	;# 
   116     019D                     	;# 
   117     019D                     	;# 
   118     019E                     	;# 
   119     019F                     	;# 
   120     020E                     	;# 
   121     020F                     	;# 
   122     0210                     	;# 
   123     0211                     	;# 
   124     0212                     	;# 
   125     0213                     	;# 
   126     0214                     	;# 
   127     028C                     	;# 
   128     028C                     	;# 
   129     028D                     	;# 
   130     028E                     	;# 
   131     028F                     	;# 
   132     028F                     	;# 
   133     0290                     	;# 
   134     0290                     	;# 
   135     0291                     	;# 
   136     0291                     	;# 
   137     0292                     	;# 
   138     0292                     	;# 
   139     0293                     	;# 
   140     0294                     	;# 
   141     0295                     	;# 
   142     0295                     	;# 
   143     0296                     	;# 
   144     0296                     	;# 
   145     0297                     	;# 
   146     0297                     	;# 
   147     030C                     	;# 
   148     030C                     	;# 
   149     030D                     	;# 
   150     030D                     	;# 
   151     030E                     	;# 
   152     030F                     	;# 
   153     0310                     	;# 
   154     0310                     	;# 
   155     0311                     	;# 
   156     0312                     	;# 
   157     0312                     	;# 
   158     0313                     	;# 
   159     0313                     	;# 
   160     0314                     	;# 
   161     0315                     	;# 
   162     0316                     	;# 
   163     0316                     	;# 
   164     0317                     	;# 
   165     0318                     	;# 
   166     0318                     	;# 
   167     0319                     	;# 
   168     0319                     	;# 
   169     031A                     	;# 
   170     031B                     	;# 
   171     031C                     	;# 
   172     031C                     	;# 
   173     031D                     	;# 
   174     038C                     	;# 
   175     038C                     	;# 
   176     038D                     	;# 
   177     038E                     	;# 
   178     038F                     	;# 
   179     0390                     	;# 
   180     0390                     	;# 
   181     0391                     	;# 
   182     0392                     	;# 
   183     0393                     	;# 
   184     039F                     	;# 
   185     040C                     	;# 
   186     040C                     	;# 
   187     040D                     	;# 
   188     040E                     	;# 
   189     040F                     	;# 
   190     040F                     	;# 
   191     0410                     	;# 
   192     0411                     	;# 
   193     0412                     	;# 
   194     0412                     	;# 
   195     0413                     	;# 
   196     0414                     	;# 
   197     041F                     	;# 
   198     048C                     	;# 
   199     048C                     	;# 
   200     048D                     	;# 
   201     048E                     	;# 
   202     048F                     	;# 
   203     048F                     	;# 
   204     0490                     	;# 
   205     0491                     	;# 
   206     0492                     	;# 
   207     0493                     	;# 
   208     050C                     	;# 
   209     050C                     	;# 
   210     050D                     	;# 
   211     050D                     	;# 
   212     050E                     	;# 
   213     050F                     	;# 
   214     0510                     	;# 
   215     0511                     	;# 
   216     0512                     	;# 
   217     0513                     	;# 
   218     0514                     	;# 
   219     058C                     	;# 
   220     058D                     	;# 
   221     058E                     	;# 
   222     058F                     	;# 
   223     0590                     	;# 
   224     0591                     	;# 
   225     0592                     	;# 
   226     0593                     	;# 
   227     0594                     	;# 
   228     0595                     	;# 
   229     0596                     	;# 
   230     0597                     	;# 
   231     060C                     	;# 
   232     060D                     	;# 
   233     060E                     	;# 
   234     060E                     	;# 
   235     060F                     	;# 
   236     0610                     	;# 
   237     0611                     	;# 
   238     0612                     	;# 
   239     0616                     	;# 
   240     0617                     	;# 
   241     0618                     	;# 
   242     0618                     	;# 
   243     0619                     	;# 
   244     061A                     	;# 
   245     061B                     	;# 
   246     061C                     	;# 
   247     068C                     	;# 
   248     068D                     	;# 
   249     068E                     	;# 
   250     068F                     	;# 
   251     0690                     	;# 
   252     0691                     	;# 
   253     0692                     	;# 
   254     0696                     	;# 
   255     0697                     	;# 
   256     0698                     	;# 
   257     0699                     	;# 
   258     069A                     	;# 
   259     069B                     	;# 
   260     069C                     	;# 
   261     100C                     	;# 
   262     100D                     	;# 
   263     101F                     	;# 
   264     108C                     	;# 
   265     108D                     	;# 
   266     108E                     	;# 
   267     108F                     	;# 
   268     109F                     	;# 
   269     109F                     	;# 
   270     110C                     	;# 
   271     110D                     	;# 
   272     1C8C                     	;# 
   273     1C8C                     	;# 
   274     1C8D                     	;# 
   275     1C8E                     	;# 
   276     1C8E                     	;# 
   277     1C8F                     	;# 
   278     1C90                     	;# 
   279     1C91                     	;# 
   280     1D0C                     	;# 
   281     1D0C                     	;# 
   282     1D0D                     	;# 
   283     1D0E                     	;# 
   284     1D0E                     	;# 
   285     1D0F                     	;# 
   286     1D10                     	;# 
   287     1D10                     	;# 
   288     1D11                     	;# 
   289     1D12                     	;# 
   290     1D12                     	;# 
   291     1D13                     	;# 
   292     1D14                     	;# 
   293     1D14                     	;# 
   294     1D15                     	;# 
   295     1D16                     	;# 
   296     1D16                     	;# 
   297     1D17                     	;# 
   298     1D18                     	;# 
   299     1D19                     	;# 
   300     1D1A                     	;# 
   301     1D1B                     	;# 
   302     1D1B                     	;# 
   303     1D1C                     	;# 
   304     1D1D                     	;# 
   305     1D1D                     	;# 
   306     1D1E                     	;# 
   307     1D1F                     	;# 
   308     1D21                     	;# 
   309     1D21                     	;# 
   310     1D22                     	;# 
   311     1D23                     	;# 
   312     1D24                     	;# 
   313     1D24                     	;# 
   314     1D25                     	;# 
   315     1D26                     	;# 
   316     1D27                     	;# 
   317     1D28                     	;# 
   318     1D29                     	;# 
   319     1D2A                     	;# 
   320     1D2B                     	;# 
   321     1D2C                     	;# 
   322     1D2D                     	;# 
   323     1D2E                     	;# 
   324     1D2F                     	;# 
   325     1D30                     	;# 
   326     1D31                     	;# 
   327     1D32                     	;# 
   328     1D8C                     	;# 
   329     1D8D                     	;# 
   330     1D8E                     	;# 
   331     1D8F                     	;# 
   332     1D90                     	;# 
   333     1D91                     	;# 
   334     1D92                     	;# 
   335     1D93                     	;# 
   336     1D94                     	;# 
   337     1D95                     	;# 
   338     1D96                     	;# 
   339     1D97                     	;# 
   340     1D98                     	;# 
   341     1D99                     	;# 
   342     1D9A                     	;# 
   343     1D9B                     	;# 
   344     1D9C                     	;# 
   345     1D9D                     	;# 
   346     1D9E                     	;# 
   347     1D9F                     	;# 
   348     1DA0                     	;# 
   349     1DA1                     	;# 
   350     1DA2                     	;# 
   351     1DA3                     	;# 
   352     1DA4                     	;# 
   353     1DA5                     	;# 
   354     1DA6                     	;# 
   355     1DA7                     	;# 
   356     1DA8                     	;# 
   357     1DA9                     	;# 
   358     1DAA                     	;# 
   359     1DAB                     	;# 
   360     1DAC                     	;# 
   361     1DAD                     	;# 
   362     1DAE                     	;# 
   363     1E0C                     	;# 
   364     1E0D                     	;# 
   365     1E0E                     	;# 
   366     1E0F                     	;# 
   367     1E10                     	;# 
   368     1E11                     	;# 
   369     1E12                     	;# 
   370     1E19                     	;# 
   371     1E1A                     	;# 
   372     1E1B                     	;# 
   373     1E1E                     	;# 
   374     1E1F                     	;# 
   375     1E39                     	;# 
   376     1E3D                     	;# 
   377     1E3E                     	;# 
   378     1E3F                     	;# 
   379     1E40                     	;# 
   380     1E41                     	;# 
   381     1E41                     	;# 
   382     1E42                     	;# 
   383     1E42                     	;# 
   384     1E43                     	;# 
   385     1E43                     	;# 
   386     1E44                     	;# 
   387     1E44                     	;# 
   388     1E47                     	;# 
   389     1E48                     	;# 
   390     1E49                     	;# 
   391     1E4A                     	;# 
   392     1E4B                     	;# 
   393     1E4C                     	;# 
   394     1E50                     	;# 
   395     1E8C                     	;# 
   396     1E8D                     	;# 
   397     1E8E                     	;# 
   398     1E8F                     	;# 
   399     1E90                     	;# 
   400     1E91                     	;# 
   401     1E92                     	;# 
   402     1E93                     	;# 
   403     1E96                     	;# 
   404     1E97                     	;# 
   405     1E98                     	;# 
   406     1E99                     	;# 
   407     1E9A                     	;# 
   408     1E9B                     	;# 
   409     1E9C                     	;# 
   410     1E9D                     	;# 
   411     1EA0                     	;# 
   412     1EA1                     	;# 
   413     1EA2                     	;# 
   414     1EA3                     	;# 
   415     1EA4                     	;# 
   416     1EA5                     	;# 
   417     1EA6                     	;# 
   418     1EA7                     	;# 
   419     1EAA                     	;# 
   420     1EAB                     	;# 
   421     1EAC                     	;# 
   422     1EAD                     	;# 
   423     1EAE                     	;# 
   424     1EB4                     	;# 
   425     1EB5                     	;# 
   426     1EB6                     	;# 
   427     1EB7                     	;# 
   428     1EB8                     	;# 
   429     1EB9                     	;# 
   430     1EBA                     	;# 
   431     1EBB                     	;# 
   432     1EE3                     	;# 
   433     1EE4                     	;# 
   434     1EEB                     	;# 
   435     1EEC                     	;# 
   436     1EEE                     	;# 
   437     1EEF                     	;# 
   438     1F0C                     	;# 
   439     1F0D                     	;# 
   440     1F0E                     	;# 
   441     1FE4                     	;# 
   442     1FE5                     	;# 
   443     1FE6                     	;# 
   444     1FE7                     	;# 
   445     1FE8                     	;# 
   446     1FE8                     	;# 
   447     1FE9                     	;# 
   448     1FEA                     	;# 
   449     1FEA                     	;# 
   450     1FEB                     	;# 
   451     1FED                     	;# 
   452     1FEE                     	;# 
   453     1FEF                     	;# 
   454     0000                     	;# 
   455     0001                     	;# 
   456     0002                     	;# 
   457     0003                     	;# 
   458     0004                     	;# 
   459     0005                     	;# 
   460     0006                     	;# 
   461     0007                     	;# 
   462     0008                     	;# 
   463     0009                     	;# 
   464     000A                     	;# 
   465     000B                     	;# 
   466     000C                     	;# 
   467     000D                     	;# 
   468     000E                     	;# 
   469     000F                     	;# 
   470     0010                     	;# 
   471     0012                     	;# 
   472     0013                     	;# 
   473     0014                     	;# 
   474     0015                     	;# 
   475     0016                     	;# 
   476     0018                     	;# 
   477     0019                     	;# 
   478     001A                     	;# 
   479     001B                     	;# 
   480     001C                     	;# 
   481     008C                     	;# 
   482     008D                     	;# 
   483     008E                     	;# 
   484     008F                     	;# 
   485     0090                     	;# 
   486     0096                     	;# 
   487     0097                     	;# 
   488     0098                     	;# 
   489     0099                     	;# 
   490     009A                     	;# 
   491     018C                     	;# 
   492     018D                     	;# 
   493     018E                     	;# 
   494     018F                     	;# 
   495     019C                     	;# 
   496     019C                     	;# 
   497     019D                     	;# 
   498     019D                     	;# 
   499     019E                     	;# 
   500     019F                     	;# 
   501     020E                     	;# 
   502     020F                     	;# 
   503     0210                     	;# 
   504     0211                     	;# 
   505     0212                     	;# 
   506     0213                     	;# 
   507     0214                     	;# 
   508     028C                     	;# 
   509     028C                     	;# 
   510     028D                     	;# 
   511     028E                     	;# 
   512     028F                     	;# 
   513     028F                     	;# 
   514     0290                     	;# 
   515     0290                     	;# 
   516     0291                     	;# 
   517     0291                     	;# 
   518     0292                     	;# 
   519     0292                     	;# 
   520     0293                     	;# 
   521     0294                     	;# 
   522     0295                     	;# 
   523     0295                     	;# 
   524     0296                     	;# 
   525     0296                     	;# 
   526     0297                     	;# 
   527     0297                     	;# 
   528     030C                     	;# 
   529     030C                     	;# 
   530     030D                     	;# 
   531     030D                     	;# 
   532     030E                     	;# 
   533     030F                     	;# 
   534     0310                     	;# 
   535     0310                     	;# 
   536     0311                     	;# 
   537     0312                     	;# 
   538     0312                     	;# 
   539     0313                     	;# 
   540     0313                     	;# 
   541     0314                     	;# 
   542     0315                     	;# 
   543     0316                     	;# 
   544     0316                     	;# 
   545     0317                     	;# 
   546     0318                     	;# 
   547     0318                     	;# 
   548     0319                     	;# 
   549     0319                     	;# 
   550     031A                     	;# 
   551     031B                     	;# 
   552     031C                     	;# 
   553     031C                     	;# 
   554     031D                     	;# 
   555     038C                     	;# 
   556     038C                     	;# 
   557     038D                     	;# 
   558     038E                     	;# 
   559     038F                     	;# 
   560     0390                     	;# 
   561     0390                     	;# 
   562     0391                     	;# 
   563     0392                     	;# 
   564     0393                     	;# 
   565     039F                     	;# 
   566     040C                     	;# 
   567     040C                     	;# 
   568     040D                     	;# 
   569     040E                     	;# 
   570     040F                     	;# 
   571     040F                     	;# 
   572     0410                     	;# 
   573     0411                     	;# 
   574     0412                     	;# 
   575     0412                     	;# 
   576     0413                     	;# 
   577     0414                     	;# 
   578     041F                     	;# 
   579     048C                     	;# 
   580     048C                     	;# 
   581     048D                     	;# 
   582     048E                     	;# 
   583     048F                     	;# 
   584     048F                     	;# 
   585     0490                     	;# 
   586     0491                     	;# 
   587     0492                     	;# 
   588     0493                     	;# 
   589     050C                     	;# 
   590     050C                     	;# 
   591     050D                     	;# 
   592     050D                     	;# 
   593     050E                     	;# 
   594     050F                     	;# 
   595     0510                     	;# 
   596     0511                     	;# 
   597     0512                     	;# 
   598     0513                     	;# 
   599     0514                     	;# 
   600     058C                     	;# 
   601     058D                     	;# 
   602     058E                     	;# 
   603     058F                     	;# 
   604     0590                     	;# 
   605     0591                     	;# 
   606     0592                     	;# 
   607     0593                     	;# 
   608     0594                     	;# 
   609     0595                     	;# 
   610     0596                     	;# 
   611     0597                     	;# 
   612     060C                     	;# 
   613     060D                     	;# 
   614     060E                     	;# 
   615     060E                     	;# 
   616     060F                     	;# 
   617     0610                     	;# 
   618     0611                     	;# 
   619     0612                     	;# 
   620     0616                     	;# 
   621     0617                     	;# 
   622     0618                     	;# 
   623     0618                     	;# 
   624     0619                     	;# 
   625     061A                     	;# 
   626     061B                     	;# 
   627     061C                     	;# 
   628     068C                     	;# 
   629     068D                     	;# 
   630     068E                     	;# 
   631     068F                     	;# 
   632     0690                     	;# 
   633     0691                     	;# 
   634     0692                     	;# 
   635     0696                     	;# 
   636     0697                     	;# 
   637     0698                     	;# 
   638     0699                     	;# 
   639     069A                     	;# 
   640     069B                     	;# 
   641     069C                     	;# 
   642     100C                     	;# 
   643     100D                     	;# 
   644     101F                     	;# 
   645     108C                     	;# 
   646     108D                     	;# 
   647     108E                     	;# 
   648     108F                     	;# 
   649     109F                     	;# 
   650     109F                     	;# 
   651     110C                     	;# 
   652     110D                     	;# 
   653     1C8C                     	;# 
   654     1C8C                     	;# 
   655     1C8D                     	;# 
   656     1C8E                     	;# 
   657     1C8E                     	;# 
   658     1C8F                     	;# 
   659     1C90                     	;# 
   660     1C91                     	;# 
   661     1D0C                     	;# 
   662     1D0C                     	;# 
   663     1D0D                     	;# 
   664     1D0E                     	;# 
   665     1D0E                     	;# 
   666     1D0F                     	;# 
   667     1D10                     	;# 
   668     1D10                     	;# 
   669     1D11                     	;# 
   670     1D12                     	;# 
   671     1D12                     	;# 
   672     1D13                     	;# 
   673     1D14                     	;# 
   674     1D14                     	;# 
   675     1D15                     	;# 
   676     1D16                     	;# 
   677     1D16                     	;# 
   678     1D17                     	;# 
   679     1D18                     	;# 
   680     1D19                     	;# 
   681     1D1A                     	;# 
   682     1D1B                     	;# 
   683     1D1B                     	;# 
   684     1D1C                     	;# 
   685     1D1D                     	;# 
   686     1D1D                     	;# 
   687     1D1E                     	;# 
   688     1D1F                     	;# 
   689     1D21                     	;# 
   690     1D21                     	;# 
   691     1D22                     	;# 
   692     1D23                     	;# 
   693     1D24                     	;# 
   694     1D24                     	;# 
   695     1D25                     	;# 
   696     1D26                     	;# 
   697     1D27                     	;# 
   698     1D28                     	;# 
   699     1D29                     	;# 
   700     1D2A                     	;# 
   701     1D2B                     	;# 
   702     1D2C                     	;# 
   703     1D2D                     	;# 
   704     1D2E                     	;# 
   705     1D2F                     	;# 
   706     1D30                     	;# 
   707     1D31                     	;# 
   708     1D32                     	;# 
   709     1D8C                     	;# 
   710     1D8D                     	;# 
   711     1D8E                     	;# 
   712     1D8F                     	;# 
   713     1D90                     	;# 
   714     1D91                     	;# 
   715     1D92                     	;# 
   716     1D93                     	;# 
   717     1D94                     	;# 
   718     1D95                     	;# 
   719     1D96                     	;# 
   720     1D97                     	;# 
   721     1D98                     	;# 
   722     1D99                     	;# 
   723     1D9A                     	;# 
   724     1D9B                     	;# 
   725     1D9C                     	;# 
   726     1D9D                     	;# 
   727     1D9E                     	;# 
   728     1D9F                     	;# 
   729     1DA0                     	;# 
   730     1DA1                     	;# 
   731     1DA2                     	;# 
   732     1DA3                     	;# 
   733     1DA4                     	;# 
   734     1DA5                     	;# 
   735     1DA6                     	;# 
   736     1DA7                     	;# 
   737     1DA8                     	;# 
   738     1DA9                     	;# 
   739     1DAA                     	;# 
   740     1DAB                     	;# 
   741     1DAC                     	;# 
   742     1DAD                     	;# 
   743     1DAE                     	;# 
   744     1E0C                     	;# 
   745     1E0D                     	;# 
   746     1E0E                     	;# 
   747     1E0F                     	;# 
   748     1E10                     	;# 
   749     1E11                     	;# 
   750     1E12                     	;# 
   751     1E19                     	;# 
   752     1E1A                     	;# 
   753     1E1B                     	;# 
   754     1E1E                     	;# 
   755     1E1F                     	;# 
   756     1E39                     	;# 
   757     1E3D                     	;# 
   758     1E3E                     	;# 
   759     1E3F                     	;# 
   760     1E40                     	;# 
   761     1E41                     	;# 
   762     1E41                     	;# 
   763     1E42                     	;# 
   764     1E42                     	;# 
   765     1E43                     	;# 
   766     1E43                     	;# 
   767     1E44                     	;# 
   768     1E44                     	;# 
   769     1E47                     	;# 
   770     1E48                     	;# 
   771     1E49                     	;# 
   772     1E4A                     	;# 
   773     1E4B                     	;# 
   774     1E4C                     	;# 
   775     1E50                     	;# 
   776     1E8C                     	;# 
   777     1E8D                     	;# 
   778     1E8E                     	;# 
   779     1E8F                     	;# 
   780     1E90                     	;# 
   781     1E91                     	;# 
   782     1E92                     	;# 
   783     1E93                     	;# 
   784     1E96                     	;# 
   785     1E97                     	;# 
   786     1E98                     	;# 
   787     1E99                     	;# 
   788     1E9A                     	;# 
   789     1E9B                     	;# 
   790     1E9C                     	;# 
   791     1E9D                     	;# 
   792     1EA0                     	;# 
   793     1EA1                     	;# 
   794     1EA2                     	;# 
   795     1EA3                     	;# 
   796     1EA4                     	;# 
   797     1EA5                     	;# 
   798     1EA6                     	;# 
   799     1EA7                     	;# 
   800     1EAA                     	;# 
   801     1EAB                     	;# 
   802     1EAC                     	;# 
   803     1EAD                     	;# 
   804     1EAE                     	;# 
   805     1EB4                     	;# 
   806     1EB5                     	;# 
   807     1EB6                     	;# 
   808     1EB7                     	;# 
   809     1EB8                     	;# 
   810     1EB9                     	;# 
   811     1EBA                     	;# 
   812     1EBB                     	;# 
   813     1EE3                     	;# 
   814     1EE4                     	;# 
   815     1EEB                     	;# 
   816     1EEC                     	;# 
   817     1EEE                     	;# 
   818     1EEF                     	;# 
   819     1F0C                     	;# 
   820     1F0D                     	;# 
   821     1F0E                     	;# 
   822     1FE4                     	;# 
   823     1FE5                     	;# 
   824     1FE6                     	;# 
   825     1FE7                     	;# 
   826     1FE8                     	;# 
   827     1FE8                     	;# 
   828     1FE9                     	;# 
   829     1FEA                     	;# 
   830     1FEA                     	;# 
   831     1FEB                     	;# 
   832     1FED                     	;# 
   833     1FEE                     	;# 
   834     1FEF                     	;# 
   835     0000                     	;# 
   836     0001                     	;# 
   837     0002                     	;# 
   838     0003                     	;# 
   839     0004                     	;# 
   840     0005                     	;# 
   841     0006                     	;# 
   842     0007                     	;# 
   843     0008                     	;# 
   844     0009                     	;# 
   845     000A                     	;# 
   846     000B                     	;# 
   847     000C                     	;# 
   848     000D                     	;# 
   849     000E                     	;# 
   850     000F                     	;# 
   851     0010                     	;# 
   852     0012                     	;# 
   853     0013                     	;# 
   854     0014                     	;# 
   855     0015                     	;# 
   856     0016                     	;# 
   857     0018                     	;# 
   858     0019                     	;# 
   859     001A                     	;# 
   860     001B                     	;# 
   861     001C                     	;# 
   862     008C                     	;# 
   863     008D                     	;# 
   864     008E                     	;# 
   865     008F                     	;# 
   866     0090                     	;# 
   867     0096                     	;# 
   868     0097                     	;# 
   869     0098                     	;# 
   870     0099                     	;# 
   871     009A                     	;# 
   872     018C                     	;# 
   873     018D                     	;# 
   874     018E                     	;# 
   875     018F                     	;# 
   876     019C                     	;# 
   877     019C                     	;# 
   878     019D                     	;# 
   879     019D                     	;# 
   880     019E                     	;# 
   881     019F                     	;# 
   882     020E                     	;# 
   883     020F                     	;# 
   884     0210                     	;# 
   885     0211                     	;# 
   886     0212                     	;# 
   887     0213                     	;# 
   888     0214                     	;# 
   889     028C                     	;# 
   890     028C                     	;# 
   891     028D                     	;# 
   892     028E                     	;# 
   893     028F                     	;# 
   894     028F                     	;# 
   895     0290                     	;# 
   896     0290                     	;# 
   897     0291                     	;# 
   898     0291                     	;# 
   899     0292                     	;# 
   900     0292                     	;# 
   901     0293                     	;# 
   902     0294                     	;# 
   903     0295                     	;# 
   904     0295                     	;# 
   905     0296                     	;# 
   906     0296                     	;# 
   907     0297                     	;# 
   908     0297                     	;# 
   909     030C                     	;# 
   910     030C                     	;# 
   911     030D                     	;# 
   912     030D                     	;# 
   913     030E                     	;# 
   914     030F                     	;# 
   915     0310                     	;# 
   916     0310                     	;# 
   917     0311                     	;# 
   918     0312                     	;# 
   919     0312                     	;# 
   920     0313                     	;# 
   921     0313                     	;# 
   922     0314                     	;# 
   923     0315                     	;# 
   924     0316                     	;# 
   925     0316                     	;# 
   926     0317                     	;# 
   927     0318                     	;# 
   928     0318                     	;# 
   929     0319                     	;# 
   930     0319                     	;# 
   931     031A                     	;# 
   932     031B                     	;# 
   933     031C                     	;# 
   934     031C                     	;# 
   935     031D                     	;# 
   936     038C                     	;# 
   937     038C                     	;# 
   938     038D                     	;# 
   939     038E                     	;# 
   940     038F                     	;# 
   941     0390                     	;# 
   942     0390                     	;# 
   943     0391                     	;# 
   944     0392                     	;# 
   945     0393                     	;# 
   946     039F                     	;# 
   947     040C                     	;# 
   948     040C                     	;# 
   949     040D                     	;# 
   950     040E                     	;# 
   951     040F                     	;# 
   952     040F                     	;# 
   953     0410                     	;# 
   954     0411                     	;# 
   955     0412                     	;# 
   956     0412                     	;# 
   957     0413                     	;# 
   958     0414                     	;# 
   959     041F                     	;# 
   960     048C                     	;# 
   961     048C                     	;# 
   962     048D                     	;# 
   963     048E                     	;# 
   964     048F                     	;# 
   965     048F                     	;# 
   966     0490                     	;# 
   967     0491                     	;# 
   968     0492                     	;# 
   969     0493                     	;# 
   970     050C                     	;# 
   971     050C                     	;# 
   972     050D                     	;# 
   973     050D                     	;# 
   974     050E                     	;# 
   975     050F                     	;# 
   976     0510                     	;# 
   977     0511                     	;# 
   978     0512                     	;# 
   979     0513                     	;# 
   980     0514                     	;# 
   981     058C                     	;# 
   982     058D                     	;# 
   983     058E                     	;# 
   984     058F                     	;# 
   985     0590                     	;# 
   986     0591                     	;# 
   987     0592                     	;# 
   988     0593                     	;# 
   989     0594                     	;# 
   990     0595                     	;# 
   991     0596                     	;# 
   992     0597                     	;# 
   993     060C                     	;# 
   994     060D                     	;# 
   995     060E                     	;# 
   996     060E                     	;# 
   997     060F                     	;# 
   998     0610                     	;# 
   999     0611                     	;# 
  1000     0612                     	;# 
  1001     0616                     	;# 
  1002     0617                     	;# 
  1003     0618                     	;# 
  1004     0618                     	;# 
  1005     0619                     	;# 
  1006     061A                     	;# 
  1007     061B                     	;# 
  1008     061C                     	;# 
  1009     068C                     	;# 
  1010     068D                     	;# 
  1011     068E                     	;# 
  1012     068F                     	;# 
  1013     0690                     	;# 
  1014     0691                     	;# 
  1015     0692                     	;# 
  1016     0696                     	;# 
  1017     0697                     	;# 
  1018     0698                     	;# 
  1019     0699                     	;# 
  1020     069A                     	;# 
  1021     069B                     	;# 
  1022     069C                     	;# 
  1023     100C                     	;# 
  1024     100D                     	;# 
  1025     101F                     	;# 
  1026     108C                     	;# 
  1027     108D                     	;# 
  1028     108E                     	;# 
  1029     108F                     	;# 
  1030     109F                     	;# 
  1031     109F                     	;# 
  1032     110C                     	;# 
  1033     110D                     	;# 
  1034     1C8C                     	;# 
  1035     1C8C                     	;# 
  1036     1C8D                     	;# 
  1037     1C8E                     	;# 
  1038     1C8E                     	;# 
  1039     1C8F                     	;# 
  1040     1C90                     	;# 
  1041     1C91                     	;# 
  1042     1D0C                     	;# 
  1043     1D0C                     	;# 
  1044     1D0D                     	;# 
  1045     1D0E                     	;# 
  1046     1D0E                     	;# 
  1047     1D0F                     	;# 
  1048     1D10                     	;# 
  1049     1D10                     	;# 
  1050     1D11                     	;# 
  1051     1D12                     	;# 
  1052     1D12                     	;# 
  1053     1D13                     	;# 
  1054     1D14                     	;# 
  1055     1D14                     	;# 
  1056     1D15                     	;# 
  1057     1D16                     	;# 
  1058     1D16                     	;# 
  1059     1D17                     	;# 
  1060     1D18                     	;# 
  1061     1D19                     	;# 
  1062     1D1A                     	;# 
  1063     1D1B                     	;# 
  1064     1D1B                     	;# 
  1065     1D1C                     	;# 
  1066     1D1D                     	;# 
  1067     1D1D                     	;# 
  1068     1D1E                     	;# 
  1069     1D1F                     	;# 
  1070     1D21                     	;# 
  1071     1D21                     	;# 
  1072     1D22                     	;# 
  1073     1D23                     	;# 
  1074     1D24                     	;# 
  1075     1D24                     	;# 
  1076     1D25                     	;# 
  1077     1D26                     	;# 
  1078     1D27                     	;# 
  1079     1D28                     	;# 
  1080     1D29                     	;# 
  1081     1D2A                     	;# 
  1082     1D2B                     	;# 
  1083     1D2C                     	;# 
  1084     1D2D                     	;# 
  1085     1D2E                     	;# 
  1086     1D2F                     	;# 
  1087     1D30                     	;# 
  1088     1D31                     	;# 
  1089     1D32                     	;# 
  1090     1D8C                     	;# 
  1091     1D8D                     	;# 
  1092     1D8E                     	;# 
  1093     1D8F                     	;# 
  1094     1D90                     	;# 
  1095     1D91                     	;# 
  1096     1D92                     	;# 
  1097     1D93                     	;# 
  1098     1D94                     	;# 
  1099     1D95                     	;# 
  1100     1D96                     	;# 
  1101     1D97                     	;# 
  1102     1D98                     	;# 
  1103     1D99                     	;# 
  1104     1D9A                     	;# 
  1105     1D9B                     	;# 
  1106     1D9C                     	;# 
  1107     1D9D                     	;# 
  1108     1D9E                     	;# 
  1109     1D9F                     	;# 
  1110     1DA0                     	;# 
  1111     1DA1                     	;# 
  1112     1DA2                     	;# 
  1113     1DA3                     	;# 
  1114     1DA4                     	;# 
  1115     1DA5                     	;# 
  1116     1DA6                     	;# 
  1117     1DA7                     	;# 
  1118     1DA8                     	;# 
  1119     1DA9                     	;# 
  1120     1DAA                     	;# 
  1121     1DAB                     	;# 
  1122     1DAC                     	;# 
  1123     1DAD                     	;# 
  1124     1DAE                     	;# 
  1125     1E0C                     	;# 
  1126     1E0D                     	;# 
  1127     1E0E                     	;# 
  1128     1E0F                     	;# 
  1129     1E10                     	;# 
  1130     1E11                     	;# 
  1131     1E12                     	;# 
  1132     1E19                     	;# 
  1133     1E1A                     	;# 
  1134     1E1B                     	;# 
  1135     1E1E                     	;# 
  1136     1E1F                     	;# 
  1137     1E39                     	;# 
  1138     1E3D                     	;# 
  1139     1E3E                     	;# 
  1140     1E3F                     	;# 
  1141     1E40                     	;# 
  1142     1E41                     	;# 
  1143     1E41                     	;# 
  1144     1E42                     	;# 
  1145     1E42                     	;# 
  1146     1E43                     	;# 
  1147     1E43                     	;# 
  1148     1E44                     	;# 
  1149     1E44                     	;# 
  1150     1E47                     	;# 
  1151     1E48                     	;# 
  1152     1E49                     	;# 
  1153     1E4A                     	;# 
  1154     1E4B                     	;# 
  1155     1E4C                     	;# 
  1156     1E50                     	;# 
  1157     1E8C                     	;# 
  1158     1E8D                     	;# 
  1159     1E8E                     	;# 
  1160     1E8F                     	;# 
  1161     1E90                     	;# 
  1162     1E91                     	;# 
  1163     1E92                     	;# 
  1164     1E93                     	;# 
  1165     1E96                     	;# 
  1166     1E97                     	;# 
  1167     1E98                     	;# 
  1168     1E99                     	;# 
  1169     1E9A                     	;# 
  1170     1E9B                     	;# 
  1171     1E9C                     	;# 
  1172     1E9D                     	;# 
  1173     1EA0                     	;# 
  1174     1EA1                     	;# 
  1175     1EA2                     	;# 
  1176     1EA3                     	;# 
  1177     1EA4                     	;# 
  1178     1EA5                     	;# 
  1179     1EA6                     	;# 
  1180     1EA7                     	;# 
  1181     1EAA                     	;# 
  1182     1EAB                     	;# 
  1183     1EAC                     	;# 
  1184     1EAD                     	;# 
  1185     1EAE                     	;# 
  1186     1EB4                     	;# 
  1187     1EB5                     	;# 
  1188     1EB6                     	;# 
  1189     1EB7                     	;# 
  1190     1EB8                     	;# 
  1191     1EB9                     	;# 
  1192     1EBA                     	;# 
  1193     1EBB                     	;# 
  1194     1EE3                     	;# 
  1195     1EE4                     	;# 
  1196     1EEB                     	;# 
  1197     1EEC                     	;# 
  1198     1EEE                     	;# 
  1199     1EEF                     	;# 
  1200     1F0C                     	;# 
  1201     1F0D                     	;# 
  1202     1F0E                     	;# 
  1203     1FE4                     	;# 
  1204     1FE5                     	;# 
  1205     1FE6                     	;# 
  1206     1FE7                     	;# 
  1207     1FE8                     	;# 
  1208     1FE8                     	;# 
  1209     1FE9                     	;# 
  1210     1FEA                     	;# 
  1211     1FEA                     	;# 
  1212     1FEB                     	;# 
  1213     1FED                     	;# 
  1214     1FEE                     	;# 
  1215     1FEF                     	;# 
  1216     0000                     	;# 
  1217     0001                     	;# 
  1218     0002                     	;# 
  1219     0003                     	;# 
  1220     0004                     	;# 
  1221     0005                     	;# 
  1222     0006                     	;# 
  1223     0007                     	;# 
  1224     0008                     	;# 
  1225     0009                     	;# 
  1226     000A                     	;# 
  1227     000B                     	;# 
  1228     000C                     	;# 
  1229     000D                     	;# 
  1230     000E                     	;# 
  1231     000F                     	;# 
  1232     0010                     	;# 
  1233     0012                     	;# 
  1234     0013                     	;# 
  1235     0014                     	;# 
  1236     0015                     	;# 
  1237     0016                     	;# 
  1238     0018                     	;# 
  1239     0019                     	;# 
  1240     001A                     	;# 
  1241     001B                     	;# 
  1242     001C                     	;# 
  1243     008C                     	;# 
  1244     008D                     	;# 
  1245     008E                     	;# 
  1246     008F                     	;# 
  1247     0090                     	;# 
  1248     0096                     	;# 
  1249     0097                     	;# 
  1250     0098                     	;# 
  1251     0099                     	;# 
  1252     009A                     	;# 
  1253     018C                     	;# 
  1254     018D                     	;# 
  1255     018E                     	;# 
  1256     018F                     	;# 
  1257     019C                     	;# 
  1258     019C                     	;# 
  1259     019D                     	;# 
  1260     019D                     	;# 
  1261     019E                     	;# 
  1262     019F                     	;# 
  1263     020E                     	;# 
  1264     020F                     	;# 
  1265     0210                     	;# 
  1266     0211                     	;# 
  1267     0212                     	;# 
  1268     0213                     	;# 
  1269     0214                     	;# 
  1270     028C                     	;# 
  1271     028C                     	;# 
  1272     028D                     	;# 
  1273     028E                     	;# 
  1274     028F                     	;# 
  1275     028F                     	;# 
  1276     0290                     	;# 
  1277     0290                     	;# 
  1278     0291                     	;# 
  1279     0291                     	;# 
  1280     0292                     	;# 
  1281     0292                     	;# 
  1282     0293                     	;# 
  1283     0294                     	;# 
  1284     0295                     	;# 
  1285     0295                     	;# 
  1286     0296                     	;# 
  1287     0296                     	;# 
  1288     0297                     	;# 
  1289     0297                     	;# 
  1290     030C                     	;# 
  1291     030C                     	;# 
  1292     030D                     	;# 
  1293     030D                     	;# 
  1294     030E                     	;# 
  1295     030F                     	;# 
  1296     0310                     	;# 
  1297     0310                     	;# 
  1298     0311                     	;# 
  1299     0312                     	;# 
  1300     0312                     	;# 
  1301     0313                     	;# 
  1302     0313                     	;# 
  1303     0314                     	;# 
  1304     0315                     	;# 
  1305     0316                     	;# 
  1306     0316                     	;# 
  1307     0317                     	;# 
  1308     0318                     	;# 
  1309     0318                     	;# 
  1310     0319                     	;# 
  1311     0319                     	;# 
  1312     031A                     	;# 
  1313     031B                     	;# 
  1314     031C                     	;# 
  1315     031C                     	;# 
  1316     031D                     	;# 
  1317     038C                     	;# 
  1318     038C                     	;# 
  1319     038D                     	;# 
  1320     038E                     	;# 
  1321     038F                     	;# 
  1322     0390                     	;# 
  1323     0390                     	;# 
  1324     0391                     	;# 
  1325     0392                     	;# 
  1326     0393                     	;# 
  1327     039F                     	;# 
  1328     040C                     	;# 
  1329     040C                     	;# 
  1330     040D                     	;# 
  1331     040E                     	;# 
  1332     040F                     	;# 
  1333     040F                     	;# 
  1334     0410                     	;# 
  1335     0411                     	;# 
  1336     0412                     	;# 
  1337     0412                     	;# 
  1338     0413                     	;# 
  1339     0414                     	;# 
  1340     041F                     	;# 
  1341     048C                     	;# 
  1342     048C                     	;# 
  1343     048D                     	;# 
  1344     048E                     	;# 
  1345     048F                     	;# 
  1346     048F                     	;# 
  1347     0490                     	;# 
  1348     0491                     	;# 
  1349     0492                     	;# 
  1350     0493                     	;# 
  1351     050C                     	;# 
  1352     050C                     	;# 
  1353     050D                     	;# 
  1354     050D                     	;# 
  1355     050E                     	;# 
  1356     050F                     	;# 
  1357     0510                     	;# 
  1358     0511                     	;# 
  1359     0512                     	;# 
  1360     0513                     	;# 
  1361     0514                     	;# 
  1362     058C                     	;# 
  1363     058D                     	;# 
  1364     058E                     	;# 
  1365     058F                     	;# 
  1366     0590                     	;# 
  1367     0591                     	;# 
  1368     0592                     	;# 
  1369     0593                     	;# 
  1370     0594                     	;# 
  1371     0595                     	;# 
  1372     0596                     	;# 
  1373     0597                     	;# 
  1374     060C                     	;# 
  1375     060D                     	;# 
  1376     060E                     	;# 
  1377     060E                     	;# 
  1378     060F                     	;# 
  1379     0610                     	;# 
  1380     0611                     	;# 
  1381     0612                     	;# 
  1382     0616                     	;# 
  1383     0617                     	;# 
  1384     0618                     	;# 
  1385     0618                     	;# 
  1386     0619                     	;# 
  1387     061A                     	;# 
  1388     061B                     	;# 
  1389     061C                     	;# 
  1390     068C                     	;# 
  1391     068D                     	;# 
  1392     068E                     	;# 
  1393     068F                     	;# 
  1394     0690                     	;# 
  1395     0691                     	;# 
  1396     0692                     	;# 
  1397     0696                     	;# 
  1398     0697                     	;# 
  1399     0698                     	;# 
  1400     0699                     	;# 
  1401     069A                     	;# 
  1402     069B                     	;# 
  1403     069C                     	;# 
  1404     100C                     	;# 
  1405     100D                     	;# 
  1406     101F                     	;# 
  1407     108C                     	;# 
  1408     108D                     	;# 
  1409     108E                     	;# 
  1410     108F                     	;# 
  1411     109F                     	;# 
  1412     109F                     	;# 
  1413     110C                     	;# 
  1414     110D                     	;# 
  1415     1C8C                     	;# 
  1416     1C8C                     	;# 
  1417     1C8D                     	;# 
  1418     1C8E                     	;# 
  1419     1C8E                     	;# 
  1420     1C8F                     	;# 
  1421     1C90                     	;# 
  1422     1C91                     	;# 
  1423     1D0C                     	;# 
  1424     1D0C                     	;# 
  1425     1D0D                     	;# 
  1426     1D0E                     	;# 
  1427     1D0E                     	;# 
  1428     1D0F                     	;# 
  1429     1D10                     	;# 
  1430     1D10                     	;# 
  1431     1D11                     	;# 
  1432     1D12                     	;# 
  1433     1D12                     	;# 
  1434     1D13                     	;# 
  1435     1D14                     	;# 
  1436     1D14                     	;# 
  1437     1D15                     	;# 
  1438     1D16                     	;# 
  1439     1D16                     	;# 
  1440     1D17                     	;# 
  1441     1D18                     	;# 
  1442     1D19                     	;# 
  1443     1D1A                     	;# 
  1444     1D1B                     	;# 
  1445     1D1B                     	;# 
  1446     1D1C                     	;# 
  1447     1D1D                     	;# 
  1448     1D1D                     	;# 
  1449     1D1E                     	;# 
  1450     1D1F                     	;# 
  1451     1D21                     	;# 
  1452     1D21                     	;# 
  1453     1D22                     	;# 
  1454     1D23                     	;# 
  1455     1D24                     	;# 
  1456     1D24                     	;# 
  1457     1D25                     	;# 
  1458     1D26                     	;# 
  1459     1D27                     	;# 
  1460     1D28                     	;# 
  1461     1D29                     	;# 
  1462     1D2A                     	;# 
  1463     1D2B                     	;# 
  1464     1D2C                     	;# 
  1465     1D2D                     	;# 
  1466     1D2E                     	;# 
  1467     1D2F                     	;# 
  1468     1D30                     	;# 
  1469     1D31                     	;# 
  1470     1D32                     	;# 
  1471     1D8C                     	;# 
  1472     1D8D                     	;# 
  1473     1D8E                     	;# 
  1474     1D8F                     	;# 
  1475     1D90                     	;# 
  1476     1D91                     	;# 
  1477     1D92                     	;# 
  1478     1D93                     	;# 
  1479     1D94                     	;# 
  1480     1D95                     	;# 
  1481     1D96                     	;# 
  1482     1D97                     	;# 
  1483     1D98                     	;# 
  1484     1D99                     	;# 
  1485     1D9A                     	;# 
  1486     1D9B                     	;# 
  1487     1D9C                     	;# 
  1488     1D9D                     	;# 
  1489     1D9E                     	;# 
  1490     1D9F                     	;# 
  1491     1DA0                     	;# 
  1492     1DA1                     	;# 
  1493     1DA2                     	;# 
  1494     1DA3                     	;# 
  1495     1DA4                     	;# 
  1496     1DA5                     	;# 
  1497     1DA6                     	;# 
  1498     1DA7                     	;# 
  1499     1DA8                     	;# 
  1500     1DA9                     	;# 
  1501     1DAA                     	;# 
  1502     1DAB                     	;# 
  1503     1DAC                     	;# 
  1504     1DAD                     	;# 
  1505     1DAE                     	;# 
  1506     1E0C                     	;# 
  1507     1E0D                     	;# 
  1508     1E0E                     	;# 
  1509     1E0F                     	;# 
  1510     1E10                     	;# 
  1511     1E11                     	;# 
  1512     1E12                     	;# 
  1513     1E19                     	;# 
  1514     1E1A                     	;# 
  1515     1E1B                     	;# 
  1516     1E1E                     	;# 
  1517     1E1F                     	;# 
  1518     1E39                     	;# 
  1519     1E3D                     	;# 
  1520     1E3E                     	;# 
  1521     1E3F                     	;# 
  1522     1E40                     	;# 
  1523     1E41                     	;# 
  1524     1E41                     	;# 
  1525     1E42                     	;# 
  1526     1E42                     	;# 
  1527     1E43                     	;# 
  1528     1E43                     	;# 
  1529     1E44                     	;# 
  1530     1E44                     	;# 
  1531     1E47                     	;# 
  1532     1E48                     	;# 
  1533     1E49                     	;# 
  1534     1E4A                     	;# 
  1535     1E4B                     	;# 
  1536     1E4C                     	;# 
  1537     1E50                     	;# 
  1538     1E8C                     	;# 
  1539     1E8D                     	;# 
  1540     1E8E                     	;# 
  1541     1E8F                     	;# 
  1542     1E90                     	;# 
  1543     1E91                     	;# 
  1544     1E92                     	;# 
  1545     1E93                     	;# 
  1546     1E96                     	;# 
  1547     1E97                     	;# 
  1548     1E98                     	;# 
  1549     1E99                     	;# 
  1550     1E9A                     	;# 
  1551     1E9B                     	;# 
  1552     1E9C                     	;# 
  1553     1E9D                     	;# 
  1554     1EA0                     	;# 
  1555     1EA1                     	;# 
  1556     1EA2                     	;# 
  1557     1EA3                     	;# 
  1558     1EA4                     	;# 
  1559     1EA5                     	;# 
  1560     1EA6                     	;# 
  1561     1EA7                     	;# 
  1562     1EAA                     	;# 
  1563     1EAB                     	;# 
  1564     1EAC                     	;# 
  1565     1EAD                     	;# 
  1566     1EAE                     	;# 
  1567     1EB4                     	;# 
  1568     1EB5                     	;# 
  1569     1EB6                     	;# 
  1570     1EB7                     	;# 
  1571     1EB8                     	;# 
  1572     1EB9                     	;# 
  1573     1EBA                     	;# 
  1574     1EBB                     	;# 
  1575     1EE3                     	;# 
  1576     1EE4                     	;# 
  1577     1EEB                     	;# 
  1578     1EEC                     	;# 
  1579     1EEE                     	;# 
  1580     1EEF                     	;# 
  1581     1F0C                     	;# 
  1582     1F0D                     	;# 
  1583     1F0E                     	;# 
  1584     1FE4                     	;# 
  1585     1FE5                     	;# 
  1586     1FE6                     	;# 
  1587     1FE7                     	;# 
  1588     1FE8                     	;# 
  1589     1FE8                     	;# 
  1590     1FE9                     	;# 
  1591     1FEA                     	;# 
  1592     1FEA                     	;# 
  1593     1FEB                     	;# 
  1594     1FED                     	;# 
  1595     1FEE                     	;# 
  1596     1FEF                     	;# 
  1597     0000                     	;# 
  1598     0001                     	;# 
  1599     0002                     	;# 
  1600     0003                     	;# 
  1601     0004                     	;# 
  1602     0005                     	;# 
  1603     0006                     	;# 
  1604     0007                     	;# 
  1605     0008                     	;# 
  1606     0009                     	;# 
  1607     000A                     	;# 
  1608     000B                     	;# 
  1609     000C                     	;# 
  1610     000D                     	;# 
  1611     000E                     	;# 
  1612     000F                     	;# 
  1613     0010                     	;# 
  1614     0012                     	;# 
  1615     0013                     	;# 
  1616     0014                     	;# 
  1617     0015                     	;# 
  1618     0016                     	;# 
  1619     0018                     	;# 
  1620     0019                     	;# 
  1621     001A                     	;# 
  1622     001B                     	;# 
  1623     001C                     	;# 
  1624     008C                     	;# 
  1625     008D                     	;# 
  1626     008E                     	;# 
  1627     008F                     	;# 
  1628     0090                     	;# 
  1629     0096                     	;# 
  1630     0097                     	;# 
  1631     0098                     	;# 
  1632     0099                     	;# 
  1633     009A                     	;# 
  1634     018C                     	;# 
  1635     018D                     	;# 
  1636     018E                     	;# 
  1637     018F                     	;# 
  1638     019C                     	;# 
  1639     019C                     	;# 
  1640     019D                     	;# 
  1641     019D                     	;# 
  1642     019E                     	;# 
  1643     019F                     	;# 
  1644     020E                     	;# 
  1645     020F                     	;# 
  1646     0210                     	;# 
  1647     0211                     	;# 
  1648     0212                     	;# 
  1649     0213                     	;# 
  1650     0214                     	;# 
  1651     028C                     	;# 
  1652     028C                     	;# 
  1653     028D                     	;# 
  1654     028E                     	;# 
  1655     028F                     	;# 
  1656     028F                     	;# 
  1657     0290                     	;# 
  1658     0290                     	;# 
  1659     0291                     	;# 
  1660     0291                     	;# 
  1661     0292                     	;# 
  1662     0292                     	;# 
  1663     0293                     	;# 
  1664     0294                     	;# 
  1665     0295                     	;# 
  1666     0295                     	;# 
  1667     0296                     	;# 
  1668     0296                     	;# 
  1669     0297                     	;# 
  1670     0297                     	;# 
  1671     030C                     	;# 
  1672     030C                     	;# 
  1673     030D                     	;# 
  1674     030D                     	;# 
  1675     030E                     	;# 
  1676     030F                     	;# 
  1677     0310                     	;# 
  1678     0310                     	;# 
  1679     0311                     	;# 
  1680     0312                     	;# 
  1681     0312                     	;# 
  1682     0313                     	;# 
  1683     0313                     	;# 
  1684     0314                     	;# 
  1685     0315                     	;# 
  1686     0316                     	;# 
  1687     0316                     	;# 
  1688     0317                     	;# 
  1689     0318                     	;# 
  1690     0318                     	;# 
  1691     0319                     	;# 
  1692     0319                     	;# 
  1693     031A                     	;# 
  1694     031B                     	;# 
  1695     031C                     	;# 
  1696     031C                     	;# 
  1697     031D                     	;# 
  1698     038C                     	;# 
  1699     038C                     	;# 
  1700     038D                     	;# 
  1701     038E                     	;# 
  1702     038F                     	;# 
  1703     0390                     	;# 
  1704     0390                     	;# 
  1705     0391                     	;# 
  1706     0392                     	;# 
  1707     0393                     	;# 
  1708     039F                     	;# 
  1709     040C                     	;# 
  1710     040C                     	;# 
  1711     040D                     	;# 
  1712     040E                     	;# 
  1713     040F                     	;# 
  1714     040F                     	;# 
  1715     0410                     	;# 
  1716     0411                     	;# 
  1717     0412                     	;# 
  1718     0412                     	;# 
  1719     0413                     	;# 
  1720     0414                     	;# 
  1721     041F                     	;# 
  1722     048C                     	;# 
  1723     048C                     	;# 
  1724     048D                     	;# 
  1725     048E                     	;# 
  1726     048F                     	;# 
  1727     048F                     	;# 
  1728     0490                     	;# 
  1729     0491                     	;# 
  1730     0492                     	;# 
  1731     0493                     	;# 
  1732     050C                     	;# 
  1733     050C                     	;# 
  1734     050D                     	;# 
  1735     050D                     	;# 
  1736     050E                     	;# 
  1737     050F                     	;# 
  1738     0510                     	;# 
  1739     0511                     	;# 
  1740     0512                     	;# 
  1741     0513                     	;# 
  1742     0514                     	;# 
  1743     058C                     	;# 
  1744     058D                     	;# 
  1745     058E                     	;# 
  1746     058F                     	;# 
  1747     0590                     	;# 
  1748     0591                     	;# 
  1749     0592                     	;# 
  1750     0593                     	;# 
  1751     0594                     	;# 
  1752     0595                     	;# 
  1753     0596                     	;# 
  1754     0597                     	;# 
  1755     060C                     	;# 
  1756     060D                     	;# 
  1757     060E                     	;# 
  1758     060E                     	;# 
  1759     060F                     	;# 
  1760     0610                     	;# 
  1761     0611                     	;# 
  1762     0612                     	;# 
  1763     0616                     	;# 
  1764     0617                     	;# 
  1765     0618                     	;# 
  1766     0618                     	;# 
  1767     0619                     	;# 
  1768     061A                     	;# 
  1769     061B                     	;# 
  1770     061C                     	;# 
  1771     068C                     	;# 
  1772     068D                     	;# 
  1773     068E                     	;# 
  1774     068F                     	;# 
  1775     0690                     	;# 
  1776     0691                     	;# 
  1777     0692                     	;# 
  1778     0696                     	;# 
  1779     0697                     	;# 
  1780     0698                     	;# 
  1781     0699                     	;# 
  1782     069A                     	;# 
  1783     069B                     	;# 
  1784     069C                     	;# 
  1785     100C                     	;# 
  1786     100D                     	;# 
  1787     101F                     	;# 
  1788     108C                     	;# 
  1789     108D                     	;# 
  1790     108E                     	;# 
  1791     108F                     	;# 
  1792     109F                     	;# 
  1793     109F                     	;# 
  1794     110C                     	;# 
  1795     110D                     	;# 
  1796     1C8C                     	;# 
  1797     1C8C                     	;# 
  1798     1C8D                     	;# 
  1799     1C8E                     	;# 
  1800     1C8E                     	;# 
  1801     1C8F                     	;# 
  1802     1C90                     	;# 
  1803     1C91                     	;# 
  1804     1D0C                     	;# 
  1805     1D0C                     	;# 
  1806     1D0D                     	;# 
  1807     1D0E                     	;# 
  1808     1D0E                     	;# 
  1809     1D0F                     	;# 
  1810     1D10                     	;# 
  1811     1D10                     	;# 
  1812     1D11                     	;# 
  1813     1D12                     	;# 
  1814     1D12                     	;# 
  1815     1D13                     	;# 
  1816     1D14                     	;# 
  1817     1D14                     	;# 
  1818     1D15                     	;# 
  1819     1D16                     	;# 
  1820     1D16                     	;# 
  1821     1D17                     	;# 
  1822     1D18                     	;# 
  1823     1D19                     	;# 
  1824     1D1A                     	;# 
  1825     1D1B                     	;# 
  1826     1D1B                     	;# 
  1827     1D1C                     	;# 
  1828     1D1D                     	;# 
  1829     1D1D                     	;# 
  1830     1D1E                     	;# 
  1831     1D1F                     	;# 
  1832     1D21                     	;# 
  1833     1D21                     	;# 
  1834     1D22                     	;# 
  1835     1D23                     	;# 
  1836     1D24                     	;# 
  1837     1D24                     	;# 
  1838     1D25                     	;# 
  1839     1D26                     	;# 
  1840     1D27                     	;# 
  1841     1D28                     	;# 
  1842     1D29                     	;# 
  1843     1D2A                     	;# 
  1844     1D2B                     	;# 
  1845     1D2C                     	;# 
  1846     1D2D                     	;# 
  1847     1D2E                     	;# 
  1848     1D2F                     	;# 
  1849     1D30                     	;# 
  1850     1D31                     	;# 
  1851     1D32                     	;# 
  1852     1D8C                     	;# 
  1853     1D8D                     	;# 
  1854     1D8E                     	;# 
  1855     1D8F                     	;# 
  1856     1D90                     	;# 
  1857     1D91                     	;# 
  1858     1D92                     	;# 
  1859     1D93                     	;# 
  1860     1D94                     	;# 
  1861     1D95                     	;# 
  1862     1D96                     	;# 
  1863     1D97                     	;# 
  1864     1D98                     	;# 
  1865     1D99                     	;# 
  1866     1D9A                     	;# 
  1867     1D9B                     	;# 
  1868     1D9C                     	;# 
  1869     1D9D                     	;# 
  1870     1D9E                     	;# 
  1871     1D9F                     	;# 
  1872     1DA0                     	;# 
  1873     1DA1                     	;# 
  1874     1DA2                     	;# 
  1875     1DA3                     	;# 
  1876     1DA4                     	;# 
  1877     1DA5                     	;# 
  1878     1DA6                     	;# 
  1879     1DA7                     	;# 
  1880     1DA8                     	;# 
  1881     1DA9                     	;# 
  1882     1DAA                     	;# 
  1883     1DAB                     	;# 
  1884     1DAC                     	;# 
  1885     1DAD                     	;# 
  1886     1DAE                     	;# 
  1887     1E0C                     	;# 
  1888     1E0D                     	;# 
  1889     1E0E                     	;# 
  1890     1E0F                     	;# 
  1891     1E10                     	;# 
  1892     1E11                     	;# 
  1893     1E12                     	;# 
  1894     1E19                     	;# 
  1895     1E1A                     	;# 
  1896     1E1B                     	;# 
  1897     1E1E                     	;# 
  1898     1E1F                     	;# 
  1899     1E39                     	;# 
  1900     1E3D                     	;# 
  1901     1E3E                     	;# 
  1902     1E3F                     	;# 
  1903     1E40                     	;# 
  1904     1E41                     	;# 
  1905     1E41                     	;# 
  1906     1E42                     	;# 
  1907     1E42                     	;# 
  1908     1E43                     	;# 
  1909     1E43                     	;# 
  1910     1E44                     	;# 
  1911     1E44                     	;# 
  1912     1E47                     	;# 
  1913     1E48                     	;# 
  1914     1E49                     	;# 
  1915     1E4A                     	;# 
  1916     1E4B                     	;# 
  1917     1E4C                     	;# 
  1918     1E50                     	;# 
  1919     1E8C                     	;# 
  1920     1E8D                     	;# 
  1921     1E8E                     	;# 
  1922     1E8F                     	;# 
  1923     1E90                     	;# 
  1924     1E91                     	;# 
  1925     1E92                     	;# 
  1926     1E93                     	;# 
  1927     1E96                     	;# 
  1928     1E97                     	;# 
  1929     1E98                     	;# 
  1930     1E99                     	;# 
  1931     1E9A                     	;# 
  1932     1E9B                     	;# 
  1933     1E9C                     	;# 
  1934     1E9D                     	;# 
  1935     1EA0                     	;# 
  1936     1EA1                     	;# 
  1937     1EA2                     	;# 
  1938     1EA3                     	;# 
  1939     1EA4                     	;# 
  1940     1EA5                     	;# 
  1941     1EA6                     	;# 
  1942     1EA7                     	;# 
  1943     1EAA                     	;# 
  1944     1EAB                     	;# 
  1945     1EAC                     	;# 
  1946     1EAD                     	;# 
  1947     1EAE                     	;# 
  1948     1EB4                     	;# 
  1949     1EB5                     	;# 
  1950     1EB6                     	;# 
  1951     1EB7                     	;# 
  1952     1EB8                     	;# 
  1953     1EB9                     	;# 
  1954     1EBA                     	;# 
  1955     1EBB                     	;# 
  1956     1EE3                     	;# 
  1957     1EE4                     	;# 
  1958     1EEB                     	;# 
  1959     1EEC                     	;# 
  1960     1EEE                     	;# 
  1961     1EEF                     	;# 
  1962     1F0C                     	;# 
  1963     1F0D                     	;# 
  1964     1F0E                     	;# 
  1965     1FE4                     	;# 
  1966     1FE5                     	;# 
  1967     1FE6                     	;# 
  1968     1FE7                     	;# 
  1969     1FE8                     	;# 
  1970     1FE8                     	;# 
  1971     1FE9                     	;# 
  1972     1FEA                     	;# 
  1973     1FEA                     	;# 
  1974     1FEB                     	;# 
  1975     1FED                     	;# 
  1976     1FEE                     	;# 
  1977     1FEF                     	;# 
  1978     0000                     	;# 
  1979     0001                     	;# 
  1980     0002                     	;# 
  1981     0003                     	;# 
  1982     0004                     	;# 
  1983     0005                     	;# 
  1984     0006                     	;# 
  1985     0007                     	;# 
  1986     0008                     	;# 
  1987     0009                     	;# 
  1988     000A                     	;# 
  1989     000B                     	;# 
  1990     000C                     	;# 
  1991     000D                     	;# 
  1992     000E                     	;# 
  1993     000F                     	;# 
  1994     0010                     	;# 
  1995     0012                     	;# 
  1996     0013                     	;# 
  1997     0014                     	;# 
  1998     0015                     	;# 
  1999     0016                     	;# 
  2000     0018                     	;# 
  2001     0019                     	;# 
  2002     001A                     	;# 
  2003     001B                     	;# 
  2004     001C                     	;# 
  2005     008C                     	;# 
  2006     008D                     	;# 
  2007     008E                     	;# 
  2008     008F                     	;# 
  2009     0090                     	;# 
  2010     0096                     	;# 
  2011     0097                     	;# 
  2012     0098                     	;# 
  2013     0099                     	;# 
  2014     009A                     	;# 
  2015     018C                     	;# 
  2016     018D                     	;# 
  2017     018E                     	;# 
  2018     018F                     	;# 
  2019     019C                     	;# 
  2020     019C                     	;# 
  2021     019D                     	;# 
  2022     019D                     	;# 
  2023     019E                     	;# 
  2024     019F                     	;# 
  2025     020E                     	;# 
  2026     020F                     	;# 
  2027     0210                     	;# 
  2028     0211                     	;# 
  2029     0212                     	;# 
  2030     0213                     	;# 
  2031     0214                     	;# 
  2032     028C                     	;# 
  2033     028C                     	;# 
  2034     028D                     	;# 
  2035     028E                     	;# 
  2036     028F                     	;# 
  2037     028F                     	;# 
  2038     0290                     	;# 
  2039     0290                     	;# 
  2040     0291                     	;# 
  2041     0291                     	;# 
  2042     0292                     	;# 
  2043     0292                     	;# 
  2044     0293                     	;# 
  2045     0294                     	;# 
  2046     0295                     	;# 
  2047     0295                     	;# 
  2048     0296                     	;# 
  2049     0296                     	;# 
  2050     0297                     	;# 
  2051     0297                     	;# 
  2052     030C                     	;# 
  2053     030C                     	;# 
  2054     030D                     	;# 
  2055     030D                     	;# 
  2056     030E                     	;# 
  2057     030F                     	;# 
  2058     0310                     	;# 
  2059     0310                     	;# 
  2060     0311                     	;# 
  2061     0312                     	;# 
  2062     0312                     	;# 
  2063     0313                     	;# 
  2064     0313                     	;# 
  2065     0314                     	;# 
  2066     0315                     	;# 
  2067     0316                     	;# 
  2068     0316                     	;# 
  2069     0317                     	;# 
  2070     0318                     	;# 
  2071     0318                     	;# 
  2072     0319                     	;# 
  2073     0319                     	;# 
  2074     031A                     	;# 
  2075     031B                     	;# 
  2076     031C                     	;# 
  2077     031C                     	;# 
  2078     031D                     	;# 
  2079     038C                     	;# 
  2080     038C                     	;# 
  2081     038D                     	;# 
  2082     038E                     	;# 
  2083     038F                     	;# 
  2084     0390                     	;# 
  2085     0390                     	;# 
  2086     0391                     	;# 
  2087     0392                     	;# 
  2088     0393                     	;# 
  2089     039F                     	;# 
  2090     040C                     	;# 
  2091     040C                     	;# 
  2092     040D                     	;# 
  2093     040E                     	;# 
  2094     040F                     	;# 
  2095     040F                     	;# 
  2096     0410                     	;# 
  2097     0411                     	;# 
  2098     0412                     	;# 
  2099     0412                     	;# 
  2100     0413                     	;# 
  2101     0414                     	;# 
  2102     041F                     	;# 
  2103     048C                     	;# 
  2104     048C                     	;# 
  2105     048D                     	;# 
  2106     048E                     	;# 
  2107     048F                     	;# 
  2108     048F                     	;# 
  2109     0490                     	;# 
  2110     0491                     	;# 
  2111     0492                     	;# 
  2112     0493                     	;# 
  2113     050C                     	;# 
  2114     050C                     	;# 
  2115     050D                     	;# 
  2116     050D                     	;# 
  2117     050E                     	;# 
  2118     050F                     	;# 
  2119     0510                     	;# 
  2120     0511                     	;# 
  2121     0512                     	;# 
  2122     0513                     	;# 
  2123     0514                     	;# 
  2124     058C                     	;# 
  2125     058D                     	;# 
  2126     058E                     	;# 
  2127     058F                     	;# 
  2128     0590                     	;# 
  2129     0591                     	;# 
  2130     0592                     	;# 
  2131     0593                     	;# 
  2132     0594                     	;# 
  2133     0595                     	;# 
  2134     0596                     	;# 
  2135     0597                     	;# 
  2136     060C                     	;# 
  2137     060D                     	;# 
  2138     060E                     	;# 
  2139     060E                     	;# 
  2140     060F                     	;# 
  2141     0610                     	;# 
  2142     0611                     	;# 
  2143     0612                     	;# 
  2144     0616                     	;# 
  2145     0617                     	;# 
  2146     0618                     	;# 
  2147     0618                     	;# 
  2148     0619                     	;# 
  2149     061A                     	;# 
  2150     061B                     	;# 
  2151     061C                     	;# 
  2152     068C                     	;# 
  2153     068D                     	;# 
  2154     068E                     	;# 
  2155     068F                     	;# 
  2156     0690                     	;# 
  2157     0691                     	;# 
  2158     0692                     	;# 
  2159     0696                     	;# 
  2160     0697                     	;# 
  2161     0698                     	;# 
  2162     0699                     	;# 
  2163     069A                     	;# 
  2164     069B                     	;# 
  2165     069C                     	;# 
  2166     100C                     	;# 
  2167     100D                     	;# 
  2168     101F                     	;# 
  2169     108C                     	;# 
  2170     108D                     	;# 
  2171     108E                     	;# 
  2172     108F                     	;# 
  2173     109F                     	;# 
  2174     109F                     	;# 
  2175     110C                     	;# 
  2176     110D                     	;# 
  2177     1C8C                     	;# 
  2178     1C8C                     	;# 
  2179     1C8D                     	;# 
  2180     1C8E                     	;# 
  2181     1C8E                     	;# 
  2182     1C8F                     	;# 
  2183     1C90                     	;# 
  2184     1C91                     	;# 
  2185     1D0C                     	;# 
  2186     1D0C                     	;# 
  2187     1D0D                     	;# 
  2188     1D0E                     	;# 
  2189     1D0E                     	;# 
  2190     1D0F                     	;# 
  2191     1D10                     	;# 
  2192     1D10                     	;# 
  2193     1D11                     	;# 
  2194     1D12                     	;# 
  2195     1D12                     	;# 
  2196     1D13                     	;# 
  2197     1D14                     	;# 
  2198     1D14                     	;# 
  2199     1D15                     	;# 
  2200     1D16                     	;# 
  2201     1D16                     	;# 
  2202     1D17                     	;# 
  2203     1D18                     	;# 
  2204     1D19                     	;# 
  2205     1D1A                     	;# 
  2206     1D1B                     	;# 
  2207     1D1B                     	;# 
  2208     1D1C                     	;# 
  2209     1D1D                     	;# 
  2210     1D1D                     	;# 
  2211     1D1E                     	;# 
  2212     1D1F                     	;# 
  2213     1D21                     	;# 
  2214     1D21                     	;# 
  2215     1D22                     	;# 
  2216     1D23                     	;# 
  2217     1D24                     	;# 
  2218     1D24                     	;# 
  2219     1D25                     	;# 
  2220     1D26                     	;# 
  2221     1D27                     	;# 
  2222     1D28                     	;# 
  2223     1D29                     	;# 
  2224     1D2A                     	;# 
  2225     1D2B                     	;# 
  2226     1D2C                     	;# 
  2227     1D2D                     	;# 
  2228     1D2E                     	;# 
  2229     1D2F                     	;# 
  2230     1D30                     	;# 
  2231     1D31                     	;# 
  2232     1D32                     	;# 
  2233     1D8C                     	;# 
  2234     1D8D                     	;# 
  2235     1D8E                     	;# 
  2236     1D8F                     	;# 
  2237     1D90                     	;# 
  2238     1D91                     	;# 
  2239     1D92                     	;# 
  2240     1D93                     	;# 
  2241     1D94                     	;# 
  2242     1D95                     	;# 
  2243     1D96                     	;# 
  2244     1D97                     	;# 
  2245     1D98                     	;# 
  2246     1D99                     	;# 
  2247     1D9A                     	;# 
  2248     1D9B                     	;# 
  2249     1D9C                     	;# 
  2250     1D9D                     	;# 
  2251     1D9E                     	;# 
  2252     1D9F                     	;# 
  2253     1DA0                     	;# 
  2254     1DA1                     	;# 
  2255     1DA2                     	;# 
  2256     1DA3                     	;# 
  2257     1DA4                     	;# 
  2258     1DA5                     	;# 
  2259     1DA6                     	;# 
  2260     1DA7                     	;# 
  2261     1DA8                     	;# 
  2262     1DA9                     	;# 
  2263     1DAA                     	;# 
  2264     1DAB                     	;# 
  2265     1DAC                     	;# 
  2266     1DAD                     	;# 
  2267     1DAE                     	;# 
  2268     1E0C                     	;# 
  2269     1E0D                     	;# 
  2270     1E0E                     	;# 
  2271     1E0F                     	;# 
  2272     1E10                     	;# 
  2273     1E11                     	;# 
  2274     1E12                     	;# 
  2275     1E19                     	;# 
  2276     1E1A                     	;# 
  2277     1E1B                     	;# 
  2278     1E1E                     	;# 
  2279     1E1F                     	;# 
  2280     1E39                     	;# 
  2281     1E3D                     	;# 
  2282     1E3E                     	;# 
  2283     1E3F                     	;# 
  2284     1E40                     	;# 
  2285     1E41                     	;# 
  2286     1E41                     	;# 
  2287     1E42                     	;# 
  2288     1E42                     	;# 
  2289     1E43                     	;# 
  2290     1E43                     	;# 
  2291     1E44                     	;# 
  2292     1E44                     	;# 
  2293     1E47                     	;# 
  2294     1E48                     	;# 
  2295     1E49                     	;# 
  2296     1E4A                     	;# 
  2297     1E4B                     	;# 
  2298     1E4C                     	;# 
  2299     1E50                     	;# 
  2300     1E8C                     	;# 
  2301     1E8D                     	;# 
  2302     1E8E                     	;# 
  2303     1E8F                     	;# 
  2304     1E90                     	;# 
  2305     1E91                     	;# 
  2306     1E92                     	;# 
  2307     1E93                     	;# 
  2308     1E96                     	;# 
  2309     1E97                     	;# 
  2310     1E98                     	;# 
  2311     1E99                     	;# 
  2312     1E9A                     	;# 
  2313     1E9B                     	;# 
  2314     1E9C                     	;# 
  2315     1E9D                     	;# 
  2316     1EA0                     	;# 
  2317     1EA1                     	;# 
  2318     1EA2                     	;# 
  2319     1EA3                     	;# 
  2320     1EA4                     	;# 
  2321     1EA5                     	;# 
  2322     1EA6                     	;# 
  2323     1EA7                     	;# 
  2324     1EAA                     	;# 
  2325     1EAB                     	;# 
  2326     1EAC                     	;# 
  2327     1EAD                     	;# 
  2328     1EAE                     	;# 
  2329     1EB4                     	;# 
  2330     1EB5                     	;# 
  2331     1EB6                     	;# 
  2332     1EB7                     	;# 
  2333     1EB8                     	;# 
  2334     1EB9                     	;# 
  2335     1EBA                     	;# 
  2336     1EBB                     	;# 
  2337     1EE3                     	;# 
  2338     1EE4                     	;# 
  2339     1EEB                     	;# 
  2340     1EEC                     	;# 
  2341     1EEE                     	;# 
  2342     1EEF                     	;# 
  2343     1F0C                     	;# 
  2344     1F0D                     	;# 
  2345     1F0E                     	;# 
  2346     1FE4                     	;# 
  2347     1FE5                     	;# 
  2348     1FE6                     	;# 
  2349     1FE7                     	;# 
  2350     1FE8                     	;# 
  2351     1FE8                     	;# 
  2352     1FE9                     	;# 
  2353     1FEA                     	;# 
  2354     1FEA                     	;# 
  2355     1FEB                     	;# 
  2356     1FED                     	;# 
  2357     1FEE                     	;# 
  2358     1FEF                     	;# 
  2359     0000                     	;# 
  2360     0001                     	;# 
  2361     0002                     	;# 
  2362     0003                     	;# 
  2363     0004                     	;# 
  2364     0005                     	;# 
  2365     0006                     	;# 
  2366     0007                     	;# 
  2367     0008                     	;# 
  2368     0009                     	;# 
  2369     000A                     	;# 
  2370     000B                     	;# 
  2371     000C                     	;# 
  2372     000D                     	;# 
  2373     000E                     	;# 
  2374     000F                     	;# 
  2375     0010                     	;# 
  2376     0012                     	;# 
  2377     0013                     	;# 
  2378     0014                     	;# 
  2379     0015                     	;# 
  2380     0016                     	;# 
  2381     0018                     	;# 
  2382     0019                     	;# 
  2383     001A                     	;# 
  2384     001B                     	;# 
  2385     001C                     	;# 
  2386     008C                     	;# 
  2387     008D                     	;# 
  2388     008E                     	;# 
  2389     008F                     	;# 
  2390     0090                     	;# 
  2391     0096                     	;# 
  2392     0097                     	;# 
  2393     0098                     	;# 
  2394     0099                     	;# 
  2395     009A                     	;# 
  2396     018C                     	;# 
  2397     018D                     	;# 
  2398     018E                     	;# 
  2399     018F                     	;# 
  2400     019C                     	;# 
  2401     019C                     	;# 
  2402     019D                     	;# 
  2403     019D                     	;# 
  2404     019E                     	;# 
  2405     019F                     	;# 
  2406     020E                     	;# 
  2407     020F                     	;# 
  2408     0210                     	;# 
  2409     0211                     	;# 
  2410     0212                     	;# 
  2411     0213                     	;# 
  2412     0214                     	;# 
  2413     028C                     	;# 
  2414     028C                     	;# 
  2415     028D                     	;# 
  2416     028E                     	;# 
  2417     028F                     	;# 
  2418     028F                     	;# 
  2419     0290                     	;# 
  2420     0290                     	;# 
  2421     0291                     	;# 
  2422     0291                     	;# 
  2423     0292                     	;# 
  2424     0292                     	;# 
  2425     0293                     	;# 
  2426     0294                     	;# 
  2427     0295                     	;# 
  2428     0295                     	;# 
  2429     0296                     	;# 
  2430     0296                     	;# 
  2431     0297                     	;# 
  2432     0297                     	;# 
  2433     030C                     	;# 
  2434     030C                     	;# 
  2435     030D                     	;# 
  2436     030D                     	;# 
  2437     030E                     	;# 
  2438     030F                     	;# 
  2439     0310                     	;# 
  2440     0310                     	;# 
  2441     0311                     	;# 
  2442     0312                     	;# 
  2443     0312                     	;# 
  2444     0313                     	;# 
  2445     0313                     	;# 
  2446     0314                     	;# 
  2447     0315                     	;# 
  2448     0316                     	;# 
  2449     0316                     	;# 
  2450     0317                     	;# 
  2451     0318                     	;# 
  2452     0318                     	;# 
  2453     0319                     	;# 
  2454     0319                     	;# 
  2455     031A                     	;# 
  2456     031B                     	;# 
  2457     031C                     	;# 
  2458     031C                     	;# 
  2459     031D                     	;# 
  2460     038C                     	;# 
  2461     038C                     	;# 
  2462     038D                     	;# 
  2463     038E                     	;# 
  2464     038F                     	;# 
  2465     0390                     	;# 
  2466     0390                     	;# 
  2467     0391                     	;# 
  2468     0392                     	;# 
  2469     0393                     	;# 
  2470     039F                     	;# 
  2471     040C                     	;# 
  2472     040C                     	;# 
  2473     040D                     	;# 
  2474     040E                     	;# 
  2475     040F                     	;# 
  2476     040F                     	;# 
  2477     0410                     	;# 
  2478     0411                     	;# 
  2479     0412                     	;# 
  2480     0412                     	;# 
  2481     0413                     	;# 
  2482     0414                     	;# 
  2483     041F                     	;# 
  2484     048C                     	;# 
  2485     048C                     	;# 
  2486     048D                     	;# 
  2487     048E                     	;# 
  2488     048F                     	;# 
  2489     048F                     	;# 
  2490     0490                     	;# 
  2491     0491                     	;# 
  2492     0492                     	;# 
  2493     0493                     	;# 
  2494     050C                     	;# 
  2495     050C                     	;# 
  2496     050D                     	;# 
  2497     050D                     	;# 
  2498     050E                     	;# 
  2499     050F                     	;# 
  2500     0510                     	;# 
  2501     0511                     	;# 
  2502     0512                     	;# 
  2503     0513                     	;# 
  2504     0514                     	;# 
  2505     058C                     	;# 
  2506     058D                     	;# 
  2507     058E                     	;# 
  2508     058F                     	;# 
  2509     0590                     	;# 
  2510     0591                     	;# 
  2511     0592                     	;# 
  2512     0593                     	;# 
  2513     0594                     	;# 
  2514     0595                     	;# 
  2515     0596                     	;# 
  2516     0597                     	;# 
  2517     060C                     	;# 
  2518     060D                     	;# 
  2519     060E                     	;# 
  2520     060E                     	;# 
  2521     060F                     	;# 
  2522     0610                     	;# 
  2523     0611                     	;# 
  2524     0612                     	;# 
  2525     0616                     	;# 
  2526     0617                     	;# 
  2527     0618                     	;# 
  2528     0618                     	;# 
  2529     0619                     	;# 
  2530     061A                     	;# 
  2531     061B                     	;# 
  2532     061C                     	;# 
  2533     068C                     	;# 
  2534     068D                     	;# 
  2535     068E                     	;# 
  2536     068F                     	;# 
  2537     0690                     	;# 
  2538     0691                     	;# 
  2539     0692                     	;# 
  2540     0696                     	;# 
  2541     0697                     	;# 
  2542     0698                     	;# 
  2543     0699                     	;# 
  2544     069A                     	;# 
  2545     069B                     	;# 
  2546     069C                     	;# 
  2547     100C                     	;# 
  2548     100D                     	;# 
  2549     101F                     	;# 
  2550     108C                     	;# 
  2551     108D                     	;# 
  2552     108E                     	;# 
  2553     108F                     	;# 
  2554     109F                     	;# 
  2555     109F                     	;# 
  2556     110C                     	;# 
  2557     110D                     	;# 
  2558     1C8C                     	;# 
  2559     1C8C                     	;# 
  2560     1C8D                     	;# 
  2561     1C8E                     	;# 
  2562     1C8E                     	;# 
  2563     1C8F                     	;# 
  2564     1C90                     	;# 
  2565     1C91                     	;# 
  2566     1D0C                     	;# 
  2567     1D0C                     	;# 
  2568     1D0D                     	;# 
  2569     1D0E                     	;# 
  2570     1D0E                     	;# 
  2571     1D0F                     	;# 
  2572     1D10                     	;# 
  2573     1D10                     	;# 
  2574     1D11                     	;# 
  2575     1D12                     	;# 
  2576     1D12                     	;# 
  2577     1D13                     	;# 
  2578     1D14                     	;# 
  2579     1D14                     	;# 
  2580     1D15                     	;# 
  2581     1D16                     	;# 
  2582     1D16                     	;# 
  2583     1D17                     	;# 
  2584     1D18                     	;# 
  2585     1D19                     	;# 
  2586     1D1A                     	;# 
  2587     1D1B                     	;# 
  2588     1D1B                     	;# 
  2589     1D1C                     	;# 
  2590     1D1D                     	;# 
  2591     1D1D                     	;# 
  2592     1D1E                     	;# 
  2593     1D1F                     	;# 
  2594     1D21                     	;# 
  2595     1D21                     	;# 
  2596     1D22                     	;# 
  2597     1D23                     	;# 
  2598     1D24                     	;# 
  2599     1D24                     	;# 
  2600     1D25                     	;# 
  2601     1D26                     	;# 
  2602     1D27                     	;# 
  2603     1D28                     	;# 
  2604     1D29                     	;# 
  2605     1D2A                     	;# 
  2606     1D2B                     	;# 
  2607     1D2C                     	;# 
  2608     1D2D                     	;# 
  2609     1D2E                     	;# 
  2610     1D2F                     	;# 
  2611     1D30                     	;# 
  2612     1D31                     	;# 
  2613     1D32                     	;# 
  2614     1D8C                     	;# 
  2615     1D8D                     	;# 
  2616     1D8E                     	;# 
  2617     1D8F                     	;# 
  2618     1D90                     	;# 
  2619     1D91                     	;# 
  2620     1D92                     	;# 
  2621     1D93                     	;# 
  2622     1D94                     	;# 
  2623     1D95                     	;# 
  2624     1D96                     	;# 
  2625     1D97                     	;# 
  2626     1D98                     	;# 
  2627     1D99                     	;# 
  2628     1D9A                     	;# 
  2629     1D9B                     	;# 
  2630     1D9C                     	;# 
  2631     1D9D                     	;# 
  2632     1D9E                     	;# 
  2633     1D9F                     	;# 
  2634     1DA0                     	;# 
  2635     1DA1                     	;# 
  2636     1DA2                     	;# 
  2637     1DA3                     	;# 
  2638     1DA4                     	;# 
  2639     1DA5                     	;# 
  2640     1DA6                     	;# 
  2641     1DA7                     	;# 
  2642     1DA8                     	;# 
  2643     1DA9                     	;# 
  2644     1DAA                     	;# 
  2645     1DAB                     	;# 
  2646     1DAC                     	;# 
  2647     1DAD                     	;# 
  2648     1DAE                     	;# 
  2649     1E0C                     	;# 
  2650     1E0D                     	;# 
  2651     1E0E                     	;# 
  2652     1E0F                     	;# 
  2653     1E10                     	;# 
  2654     1E11                     	;# 
  2655     1E12                     	;# 
  2656     1E19                     	;# 
  2657     1E1A                     	;# 
  2658     1E1B                     	;# 
  2659     1E1E                     	;# 
  2660     1E1F                     	;# 
  2661     1E39                     	;# 
  2662     1E3D                     	;# 
  2663     1E3E                     	;# 
  2664     1E3F                     	;# 
  2665     1E40                     	;# 
  2666     1E41                     	;# 
  2667     1E41                     	;# 
  2668     1E42                     	;# 
  2669     1E42                     	;# 
  2670     1E43                     	;# 
  2671     1E43                     	;# 
  2672     1E44                     	;# 
  2673     1E44                     	;# 
  2674     1E47                     	;# 
  2675     1E48                     	;# 
  2676     1E49                     	;# 
  2677     1E4A                     	;# 
  2678     1E4B                     	;# 
  2679     1E4C                     	;# 
  2680     1E50                     	;# 
  2681     1E8C                     	;# 
  2682     1E8D                     	;# 
  2683     1E8E                     	;# 
  2684     1E8F                     	;# 
  2685     1E90                     	;# 
  2686     1E91                     	;# 
  2687     1E92                     	;# 
  2688     1E93                     	;# 
  2689     1E96                     	;# 
  2690     1E97                     	;# 
  2691     1E98                     	;# 
  2692     1E99                     	;# 
  2693     1E9A                     	;# 
  2694     1E9B                     	;# 
  2695     1E9C                     	;# 
  2696     1E9D                     	;# 
  2697     1EA0                     	;# 
  2698     1EA1                     	;# 
  2699     1EA2                     	;# 
  2700     1EA3                     	;# 
  2701     1EA4                     	;# 
  2702     1EA5                     	;# 
  2703     1EA6                     	;# 
  2704     1EA7                     	;# 
  2705     1EAA                     	;# 
  2706     1EAB                     	;# 
  2707     1EAC                     	;# 
  2708     1EAD                     	;# 
  2709     1EAE                     	;# 
  2710     1EB4                     	;# 
  2711     1EB5                     	;# 
  2712     1EB6                     	;# 
  2713     1EB7                     	;# 
  2714     1EB8                     	;# 
  2715     1EB9                     	;# 
  2716     1EBA                     	;# 
  2717     1EBB                     	;# 
  2718     1EE3                     	;# 
  2719     1EE4                     	;# 
  2720     1EEB                     	;# 
  2721     1EEC                     	;# 
  2722     1EEE                     	;# 
  2723     1EEF                     	;# 
  2724     1F0C                     	;# 
  2725     1F0D                     	;# 
  2726     1F0E                     	;# 
  2727     1FE4                     	;# 
  2728     1FE5                     	;# 
  2729     1FE6                     	;# 
  2730     1FE7                     	;# 
  2731     1FE8                     	;# 
  2732     1FE8                     	;# 
  2733     1FE9                     	;# 
  2734     1FEA                     	;# 
  2735     1FEA                     	;# 
  2736     1FEB                     	;# 
  2737     1FED                     	;# 
  2738     1FEE                     	;# 
  2739     1FEF                     	;# 
  2740                           
  2741 ;; Function _INT_DefaultInterruptHandler is unused but had its address taken
  2742     0000                     
  2743 ;; Function _EUSART1_Deinitialize is unused but had its address taken
  2744     0000                     
  2745 ;; Function _EUSART1_TransmitEnable is unused but had its address taken
  2746     0000                     
  2747 ;; Function _EUSART1_TransmitDisable is unused but had its address taken
  2748     0000                     
  2749 ;; Function _EUSART1_AutoBaudSet is unused but had its address taken
  2750     0000                     
  2751 ;; Function _EUSART1_AutoBaudQuery is unused but had its address taken
  2752     0000                     
  2753 ;; Function _EUSART1_IsRxReady is unused but had its address taken
  2754     0000                     
  2755 ;; Function _EUSART1_IsTxReady is unused but had its address taken
  2756     0000                     
  2757 ;; Function _EUSART1_IsTxDone is unused but had its address taken
  2758     0000                     
  2759 ;; Function _EUSART1_ErrorGet is unused but had its address taken
  2760     0000                     
  2761 ;; Function _EUSART1_Read is unused but had its address taken
  2762     0000                     
  2763 ;; Function _EUSART1_Write is unused but had its address taken
  2764     0000                     
  2765 ;; Function _EUSART1_DefaultFramingErrorCallback is unused but had its address taken
  2766     0000                     
  2767 ;; Function _EUSART1_DefaultOverrunErrorCallback is unused but had its address taken
  2768     0000                     
  2769                           	psect	idataBANK0
  2770     048E                     __pidataBANK0:
  2771                           
  2772                           ;initializer for _DHT11_OK
  2773     048E  34CA               	retlw	202
  2774                           
  2775                           ;initializer for _DHT11_ERROR
  2776     048F  3465               	retlw	101
  2777                           
  2778                           ;initializer for _TIMEOUT
  2779     0490  3464               	retlw	100
  2780                           
  2781                           	psect	stringtext1
  2782     037C                     __pstringtext1:
  2783     037C                     _UART1:
  2784     037C  341B               	retlw	low _EUSART1_Initialize
  2785     037D  3404               	retlw	high _EUSART1_Initialize
  2786     037E  3400               	retlw	0
  2787     037F  3400               	retlw	0
  2788     0380  3400               	retlw	0
  2789     0381  3400               	retlw	0
  2790     0382  3400               	retlw	0
  2791     0383  3400               	retlw	0
  2792     0384  3400               	retlw	0
  2793     0385  3400               	retlw	0
  2794     0386  3400               	retlw	0
  2795     0387  3400               	retlw	0
  2796     0388  3400               	retlw	0
  2797     0389  3400               	retlw	0
  2798     038A  3400               	retlw	0
  2799     038B  3400               	retlw	0
  2800     038C  3400               	retlw	0
  2801     038D  3400               	retlw	0
  2802     038E  3400               	retlw	0
  2803     038F  3400               	retlw	0
  2804     0390  3400               	retlw	0
  2805     0391  3400               	retlw	0
  2806     0392  3400               	retlw	0
  2807     0393  3400               	retlw	0
  2808     0394  3400               	retlw	0
  2809     0395  3400               	retlw	0
  2810     0396  3400               	retlw	0
  2811     0397  3400               	retlw	0
  2812     0398  3400               	retlw	0
  2813     0399  3400               	retlw	0
  2814     039A  3400               	retlw	0
  2815     039B  3400               	retlw	0
  2816     039C  3400               	retlw	0
  2817     039D  3400               	retlw	0
  2818     039E  3400               	retlw	0
  2819     039F  3400               	retlw	0
  2820     03A0  3400               	retlw	0
  2821     03A1  3400               	retlw	0
  2822     03A2  3400               	retlw	0
  2823     03A3  3400               	retlw	0
  2824     03A4  3461               	retlw	low _EUSART1_FramingErrorCallbackRegister
  2825     03A5  3404               	retlw	high _EUSART1_FramingErrorCallbackRegister
  2826     03A6  3455               	retlw	low _EUSART1_OverrunErrorCallbackRegister
  2827     03A7  3404               	retlw	high _EUSART1_OverrunErrorCallbackRegister
  2828     03A8  3400               	retlw	0
  2829     03A9  3400               	retlw	0
  2830     03AA  3400               	retlw	0
  2831     03AB  3400               	retlw	0
  2832     03AC                     __end_of_UART1:
  2833     000D                     _PORTBbits	set	13
  2834     0013                     _TRISBbits	set	19
  2835     0019                     _LATBbits	set	25
  2836     0016                     _TRISE	set	22
  2837     0015                     _TRISD	set	21
  2838     0014                     _TRISC	set	20
  2839     0013                     _TRISB	set	19
  2840     0012                     _TRISA	set	18
  2841     001C                     _LATE	set	28
  2842     001B                     _LATD	set	27
  2843     001A                     _LATC	set	26
  2844     0019                     _LATB	set	25
  2845     0018                     _LATA	set	24
  2846     000B                     _INTCONbits	set	11
  2847     008F                     _PIR3bits	set	143
  2848     0096                     _PIE0bits	set	150
  2849     008C                     _PIR0bits	set	140
  2850     0214                     _ACTCON	set	532
  2851     0212                     _OSCTUNE	set	530
  2852     0210                     _OSCSTAT	set	528
  2853     0213                     _OSCFRQ	set	531
  2854     0211                     _OSCEN	set	529
  2855     020F                     _OSCCON3	set	527
  2856     020E                     _OSCCON2	set	526
  2857     060D                     _TX1REG	set	1549
  2858     060C                     _RC1REG	set	1548
  2859     0612                     _BAUD1CONbits	set	1554
  2860     0611                     _TX1STAbits	set	1553
  2861     0610                     _RC1STAbits	set	1552
  2862     060F                     _SP1BRGH	set	1551
  2863     060E                     _SP1BRGL	set	1550
  2864     0611                     _TX1STA	set	1553
  2865     0610                     _RC1STA	set	1552
  2866     0612                     _BAUD1CON	set	1554
  2867     1DA2                     _RC6PPS	set	7586
  2868     1E41                     _RX1PPS	set	7745
  2869     1E97                     _WPUBbits	set	7831
  2870     1EBB                     _IOCEF	set	7867
  2871     1EBA                     _IOCEN	set	7866
  2872     1EB9                     _IOCEP	set	7865
  2873     1EA7                     _IOCCF	set	7847
  2874     1EA6                     _IOCCN	set	7846
  2875     1EA5                     _IOCCP	set	7845
  2876     1E9D                     _IOCBF	set	7837
  2877     1E9C                     _IOCBN	set	7836
  2878     1E9B                     _IOCBP	set	7835
  2879     1E93                     _IOCAF	set	7827
  2880     1E92                     _IOCAN	set	7826
  2881     1E91                     _IOCAP	set	7825
  2882     1EB8                     _INLVLE	set	7864
  2883     1EAE                     _INLVLD	set	7854
  2884     1EA4                     _INLVLC	set	7844
  2885     1E9A                     _INLVLB	set	7834
  2886     1E90                     _INLVLA	set	7824
  2887     1EB7                     _SLRCONE	set	7863
  2888     1EAD                     _SLRCOND	set	7853
  2889     1EA3                     _SLRCONC	set	7843
  2890     1E99                     _SLRCONB	set	7833
  2891     1E8F                     _SLRCONA	set	7823
  2892     1EB6                     _ODCONE	set	7862
  2893     1EAC                     _ODCOND	set	7852
  2894     1EA2                     _ODCONC	set	7842
  2895     1E98                     _ODCONB	set	7832
  2896     1E8E                     _ODCONA	set	7822
  2897     1EB5                     _WPUE	set	7861
  2898     1EAB                     _WPUD	set	7851
  2899     1EA1                     _WPUC	set	7841
  2900     1E97                     _WPUB	set	7831
  2901     1E8D                     _WPUA	set	7821
  2902     1EB4                     _ANSELE	set	7860
  2903     1EAA                     _ANSELD	set	7850
  2904     1EA0                     _ANSELC	set	7840
  2905     1E96                     _ANSELB	set	7830
  2906     1E8C                     _ANSELA	set	7820
  2907     03AC                     STR_1:
  2908     03AC  3456               	retlw	86	;'V'
  2909     03AD  3441               	retlw	65	;'A'
  2910     03AE  344C               	retlw	76	;'L'
  2911     03AF  3449               	retlw	73	;'I'
  2912     03B0  3444               	retlw	68	;'D'
  2913     03B1  3400               	retlw	0
  2914                           
  2915                           	psect	stringtext2
  2916     0000                     __pstringtext2:
  2917                           
  2918                           	psect	cinit
  2919     0016                     start_initialization:	
  2920                           ; #config settings
  2921                           
  2922     0016                     __initialization:
  2923                           
  2924                           ; Initialize objects allocated to BANK0
  2925     0016  3184  248E  3180   	fcall	__pidataBANK0	;fetch initializer
  2926     0019  00D7               	movwf	__pdataBANK0& (0+127)
  2927     001A  3184  248F  3180   	fcall	__pidataBANK0+1	;fetch initializer
  2928     001D  00D8               	movwf	(__pdataBANK0+1)& (0+127)
  2929     001E  3184  2490  3180   	fcall	__pidataBANK0+2	;fetch initializer
  2930     0021  00D9               	movwf	(__pdataBANK0+2)& (0+127)
  2931                           
  2932                           ; Clear objects allocated to BANK0
  2933     0022  3047               	movlw	low __pbssBANK0
  2934     0023  0084               	movwf	4
  2935     0024  3000               	movlw	high __pbssBANK0
  2936     0025  0085               	movwf	5
  2937     0026  3010               	movlw	16
  2938     0027  3184  2482  3180   	fcall	clear_ram0
  2939                           
  2940                           ; Clear objects allocated to BANK2
  2941     002A  3020               	movlw	low __pbssBANK2
  2942     002B  0084               	movwf	4
  2943     002C  3001               	movlw	high __pbssBANK2
  2944     002D  0085               	movwf	5
  2945     002E  3020               	movlw	32
  2946     002F  3184  2482  3180   	fcall	clear_ram0
  2947     0032                     end_of_initialization:	
  2948                           ;End of C runtime variable initialization code
  2949                           
  2950     0032                     __end_of__initialization:
  2951     0032  107E               	bcf	int$flags,0	;clear compiler interrupt flag (level 1)
  2952     0033  0140               	movlb	0
  2953     0034  3180  2836         	ljmp	_main	;jump to C main() function
  2954                           
  2955                           	psect	bssBANK0
  2956     0047                     __pbssBANK0:
  2957     0047                     _nout:
  2958     0047                     	ds	2
  2959     0049                     _width:
  2960     0049                     	ds	2
  2961     004B                     _prec:
  2962     004B                     	ds	2
  2963     004D                     _EUSART1_OverrunErrorHandler:
  2964     004D                     	ds	2
  2965     004F                     _EUSART1_FramingErrorHandler:
  2966     004F                     	ds	2
  2967     0051                     _eusart1RxLastError:
  2968     0051                     	ds	2
  2969     0053                     _INT_InterruptHandler:
  2970     0053                     	ds	2
  2971     0055                     _flags:
  2972     0055                     	ds	1
  2973     0056                     ___freelist:
  2974     0056                     	ds	1
  2975                           
  2976                           	psect	dataBANK0
  2977     0057                     __pdataBANK0:
  2978     0057                     _DHT11_OK:
  2979     0057                     	ds	1
  2980     0058                     _DHT11_ERROR:
  2981     0058                     	ds	1
  2982     0059                     _TIMEOUT:
  2983     0059                     	ds	1
  2984                           
  2985                           	psect	bssBANK2
  2986     0120                     __pbssBANK2:
  2987     0120                     _dbuf:
  2988     0120                     	ds	32
  2989                           
  2990                           	psect	clrtext
  2991     0482                     clear_ram0:	
  2992                           ;	Called with FSR0 containing the base address, and
  2993                           ;	WREG with the size to clear
  2994                           
  2995     0482  0064               	clrwdt	;clear the watchdog before getting into this loop
  2996     0483                     clrloop0:
  2997     0483  0180               	clrf	0	;clear RAM location pointed to by FSR
  2998     0484  3101               	addfsr 0,1
  2999     0485  0B89               	decfsz	9,f	;Have we reached the end of clearing yet?
  3000     0486  2C83               	goto	clrloop0	;have we reached the end yet?
  3001     0487  3400               	retlw	0	;all done for this memory range, return
  3002                           
  3003                           	psect	cstackBANK1
  3004     00A0                     __pcstackBANK1:
  3005     00A0                     main@data:
  3006                           
  3007                           ; 80 bytes @ 0x0
  3008     00A0                     	ds	80
  3009                           
  3010                           	psect	cstackCOMMON
  3011     0070                     __pcstackCOMMON:
  3012     0070                     ?_INT_SetInterruptHandler:
  3013     0070                     ?_PIN_MANAGER_IOC:	
  3014                           ; 1 bytes @ 0x0
  3015                           
  3016     0070                     ??_PIN_MANAGER_IOC:	
  3017                           ; 1 bytes @ 0x0
  3018                           
  3019     0070                     ?_EUSART1_Initialize:	
  3020                           ; 1 bytes @ 0x0
  3021                           
  3022     0070                     ?_EUSART1_FramingErrorCallbackRegister:	
  3023                           ; 1 bytes @ 0x0
  3024                           
  3025     0070                     ?_EUSART1_OverrunErrorCallbackRegister:	
  3026                           ; 1 bytes @ 0x0
  3027                           
  3028     0070                     ?_dht11Start:	
  3029                           ; 1 bytes @ 0x0
  3030                           
  3031     0070                     ??_dht11Start:	
  3032                           ; 1 bytes @ 0x0
  3033                           
  3034     0070                     ?_dht11CheckResponse:	
  3035                           ; 1 bytes @ 0x0
  3036                           
  3037     0070                     ??_dht11CheckResponse:	
  3038                           ; 1 bytes @ 0x0
  3039                           
  3040     0070                     ?_dht11ValidateResponse:	
  3041                           ; 1 bytes @ 0x0
  3042                           
  3043     0070                     ??_dht11ValidateResponse:	
  3044                           ; 1 bytes @ 0x0
  3045                           
  3046     0070                     ?_parseDHT11Byte:	
  3047                           ; 1 bytes @ 0x0
  3048                           
  3049     0070                     ?_free:	
  3050                           ; 1 bytes @ 0x0
  3051                           
  3052     0070                     ??_free:	
  3053                           ; 1 bytes @ 0x0
  3054                           
  3055     0070                     ?_putch:	
  3056                           ; 1 bytes @ 0x0
  3057                           
  3058     0070                     ??_putch:	
  3059                           ; 1 bytes @ 0x0
  3060                           
  3061     0070                     ?_CLOCK_Initialize:	
  3062                           ; 1 bytes @ 0x0
  3063                           
  3064     0070                     ??_CLOCK_Initialize:	
  3065                           ; 1 bytes @ 0x0
  3066                           
  3067     0070                     ?_INTERRUPT_Initialize:	
  3068                           ; 1 bytes @ 0x0
  3069                           
  3070     0070                     ?_INTERRUPT_InterruptManager:	
  3071                           ; 1 bytes @ 0x0
  3072                           
  3073     0070                     ??_INTERRUPT_InterruptManager:	
  3074                           ; 1 bytes @ 0x0
  3075                           
  3076     0070                     ?_PIN_MANAGER_Initialize:	
  3077                           ; 1 bytes @ 0x0
  3078                           
  3079     0070                     ??_PIN_MANAGER_Initialize:	
  3080                           ; 1 bytes @ 0x0
  3081                           
  3082     0070                     ?_SYSTEM_Initialize:	
  3083                           ; 1 bytes @ 0x0
  3084                           
  3085     0070                     ?_fputc:	
  3086                           ; 1 bytes @ 0x0
  3087                           
  3088     0070                     ?_main:	
  3089                           ; 2 bytes @ 0x0
  3090                           
  3091     0070                     parseDHT11Byte@byte:	
  3092                           ; 2 bytes @ 0x0
  3093                           
  3094     0070                     putch@c:	
  3095                           ; 1 bytes @ 0x0
  3096                           
  3097     0070                     INT_SetInterruptHandler@InterruptHandler:	
  3098                           ; 1 bytes @ 0x0
  3099                           
  3100     0070                     EUSART1_FramingErrorCallbackRegister@callbackHandler:	
  3101                           ; 2 bytes @ 0x0
  3102                           
  3103     0070                     EUSART1_OverrunErrorCallbackRegister@callbackHandler:	
  3104                           ; 2 bytes @ 0x0
  3105                           
  3106     0070                     fputc@c:	
  3107                           ; 2 bytes @ 0x0
  3108                           
  3109                           
  3110                           ; 2 bytes @ 0x0
  3111     0070                     	ds	1
  3112     0071                     ??_parseDHT11Byte:
  3113     0071                     dht11CheckResponse@tick:	
  3114                           ; 1 bytes @ 0x1
  3115                           
  3116     0071                     dht11ValidateResponse@byteArray:	
  3117                           ; 1 bytes @ 0x1
  3118                           
  3119                           
  3120                           ; 1 bytes @ 0x1
  3121     0071                     	ds	1
  3122     0072                     ??_INT_SetInterruptHandler:
  3123     0072                     ??_EUSART1_Initialize:	
  3124                           ; 1 bytes @ 0x2
  3125                           
  3126     0072                     ??_EUSART1_FramingErrorCallbackRegister:	
  3127                           ; 1 bytes @ 0x2
  3128                           
  3129     0072                     ??_EUSART1_OverrunErrorCallbackRegister:	
  3130                           ; 1 bytes @ 0x2
  3131                           
  3132     0072                     ??_INTERRUPT_Initialize:	
  3133                           ; 1 bytes @ 0x2
  3134                           
  3135     0072                     ??_SYSTEM_Initialize:	
  3136                           ; 1 bytes @ 0x2
  3137                           
  3138     0072                     dht11ValidateResponse@i:	
  3139                           ; 1 bytes @ 0x2
  3140                           
  3141     0072                     fputc@fp:	
  3142                           ; 1 bytes @ 0x2
  3143                           
  3144                           
  3145                           ; 2 bytes @ 0x2
  3146     0072                     	ds	1
  3147     0073                     parseDHT11Byte@low:
  3148                           
  3149                           ; 1 bytes @ 0x3
  3150     0073                     	ds	1
  3151     0074                     ??_fputc:
  3152     0074                     parseDHT11Byte@high:	
  3153                           ; 1 bytes @ 0x4
  3154                           
  3155     0074                     free@cptr:	
  3156                           ; 1 bytes @ 0x4
  3157                           
  3158                           
  3159                           ; 1 bytes @ 0x4
  3160     0074                     	ds	1
  3161     0075                     parseDHT11Byte@_bit:
  3162     0075                     free@ptr:	
  3163                           ; 1 bytes @ 0x5
  3164                           
  3165                           
  3166                           ; 1 bytes @ 0x5
  3167     0075                     	ds	1
  3168     0076                     parseDHT11Byte@idx:
  3169     0076                     free@c:	
  3170                           ; 1 bytes @ 0x6
  3171                           
  3172                           
  3173                           ; 1 bytes @ 0x6
  3174     0076                     	ds	1
  3175     0077                     parseDHT11Byte@startPos:
  3176                           
  3177                           ; 1 bytes @ 0x7
  3178     0077                     	ds	1
  3179     0078                     parseDHT11Byte@result:
  3180                           
  3181                           ; 1 bytes @ 0x8
  3182     0078                     	ds	1
  3183     0079                     ?_vfpfcnvrt:
  3184     0079                     parseDHT11Byte@byteArray:	
  3185                           ; 2 bytes @ 0x9
  3186                           
  3187     0079                     vfpfcnvrt@fp:	
  3188                           ; 1 bytes @ 0x9
  3189                           
  3190                           
  3191                           ; 2 bytes @ 0x9
  3192     0079                     	ds	1
  3193     007A                     parseDHT11Byte@i:
  3194                           
  3195                           ; 1 bytes @ 0xA
  3196     007A                     	ds	1
  3197     007B                     vfpfcnvrt@fmt:
  3198                           
  3199                           ; 1 bytes @ 0xB
  3200     007B                     	ds	1
  3201     007C                     vfpfcnvrt@ap:
  3202                           
  3203                           ; 1 bytes @ 0xC
  3204     007C                     	ds	1
  3205     007D                     ??_vfprintf:
  3206                           
  3207                           ; 1 bytes @ 0xD
  3208     007D                     	ds	1
  3209     007E                     ??_printf:
  3210                           
  3211                           	psect	cstackBANK0
  3212     0020                     __pcstackBANK0:	
  3213                           ; 1 bytes @ 0xE
  3214                           
  3215     0020                     ??_vfpfcnvrt:
  3216                           
  3217                           ; 1 bytes @ 0x0
  3218     0020                     	ds	4
  3219     0024                     vfpfcnvrt@cp:
  3220                           
  3221                           ; 2 bytes @ 0x4
  3222     0024                     	ds	2
  3223     0026                     ?_vfprintf:
  3224     0026                     vfprintf@fp:	
  3225                           ; 2 bytes @ 0x6
  3226                           
  3227                           
  3228                           ; 2 bytes @ 0x6
  3229     0026                     	ds	2
  3230     0028                     vfprintf@fmt:
  3231                           
  3232                           ; 2 bytes @ 0x8
  3233     0028                     	ds	2
  3234     002A                     vfprintf@ap:
  3235                           
  3236                           ; 1 bytes @ 0xA
  3237     002A                     	ds	1
  3238     002B                     vfprintf@cfmt:
  3239                           
  3240                           ; 2 bytes @ 0xB
  3241     002B                     	ds	2
  3242     002D                     ?_printf:
  3243     002D                     printf@fmt:	
  3244                           ; 2 bytes @ 0xD
  3245                           
  3246                           
  3247                           ; 2 bytes @ 0xD
  3248     002D                     	ds	2
  3249     002F                     printf@ap:
  3250                           
  3251                           ; 1 bytes @ 0xF
  3252     002F                     	ds	1
  3253     0030                     ??_main:
  3254                           
  3255                           ; 1 bytes @ 0x10
  3256     0030                     	ds	14
  3257     003E                     main@status:
  3258                           
  3259                           ; 1 bytes @ 0x1E
  3260     003E                     	ds	1
  3261     003F                     main@checkSum:
  3262                           
  3263                           ; 1 bytes @ 0x1F
  3264     003F                     	ds	1
  3265     0040                     main@humidity:
  3266                           
  3267                           ; 1 bytes @ 0x20
  3268     0040                     	ds	1
  3269     0041                     main@humidityDecimal:
  3270                           
  3271                           ; 1 bytes @ 0x21
  3272     0041                     	ds	1
  3273     0042                     main@temp:
  3274                           
  3275                           ; 1 bytes @ 0x22
  3276     0042                     	ds	1
  3277     0043                     main@tempDecimal:
  3278                           
  3279                           ; 1 bytes @ 0x23
  3280     0043                     	ds	1
  3281     0044                     main@lowTick:
  3282                           
  3283                           ; 1 bytes @ 0x24
  3284     0044                     	ds	1
  3285     0045                     main@highTick:
  3286                           
  3287                           ; 1 bytes @ 0x25
  3288     0045                     	ds	1
  3289     0046                     main@i:
  3290                           
  3291                           ; 1 bytes @ 0x26
  3292     0046                     	ds	1
  3293                           
  3294                           	psect	maintext
  3295     0036                     __pmaintext:	
  3296 ;;
  3297 ;;Main: autosize = 0, tempsize = 14, incstack = 0, save=0
  3298 ;;
  3299 ;; *************** function _main *****************
  3300 ;; Defined at:
  3301 ;;		line 73 in file "main.c"
  3302 ;; Parameters:    Size  Location     Type
  3303 ;;		None
  3304 ;; Auto vars:     Size  Location     Type
  3305 ;;  highTick        1   37[BANK0 ] unsigned char 
  3306 ;;  lowTick         1   36[BANK0 ] unsigned char 
  3307 ;;  tempDecimal     1   35[BANK0 ] unsigned char 
  3308 ;;  temp            1   34[BANK0 ] unsigned char 
  3309 ;;  humidityDeci    1   33[BANK0 ] unsigned char 
  3310 ;;  humidity        1   32[BANK0 ] unsigned char 
  3311 ;;  checkSum        1   31[BANK0 ] unsigned char 
  3312 ;;  i               1   38[BANK0 ] unsigned char 
  3313 ;;  data           80    0[BANK1 ] unsigned char [80]
  3314 ;;  status          1   30[BANK0 ] unsigned char 
  3315 ;; Return value:  Size  Location     Type
  3316 ;;                  2  351[None  ] int 
  3317 ;; Registers used:
  3318 ;;		wreg, fsr0l, fsr0h, fsr1l, fsr1h, status,2, status,0, pclath, cstack
  3319 ;; Tracked objects:
  3320 ;;		On entry : B3F/0
  3321 ;;		On exit  : 0/0
  3322 ;;		Unchanged: 0/0
  3323 ;; Data sizes:     COMMON   BANK0   BANK1   BANK2   BANK3   BANK4   BANK5   BANK6   BANK7   BANK8   BANK9  BANK10  BANK1
      +1  BANK12  BANK13  BANK14  BANK15  BANK16  BANK17  BANK18  BANK19  BANK20  BANK21  BANK22  BANK23  BANK24  BANK25
  3324 ;;      Params:         0       0       0       0       0       0       0       0       0       0       0       0       
      +0       0       0       0       0       0       0       0       0       0       0       0       0       0       0
  3325 ;;      Locals:         0       9      80       0       0       0       0       0       0       0       0       0       
      +0       0       0       0       0       0       0       0       0       0       0       0       0       0       0
  3326 ;;      Temps:          0      14       0       0       0       0       0       0       0       0       0       0       
      +0       0       0       0       0       0       0       0       0       0       0       0       0       0       0
  3327 ;;      Totals:         0      23      80       0       0       0       0       0       0       0       0       0       
      +0       0       0       0       0       0       0       0       0       0       0       0       0       0       0
  3328 ;;Total ram usage:      103 bytes
  3329 ;; Hardware stack levels required when called: 7
  3330 ;; This function calls:
  3331 ;;		_SYSTEM_Initialize
  3332 ;;		_dht11CheckResponse
  3333 ;;		_dht11Start
  3334 ;;		_dht11ValidateResponse
  3335 ;;		_free
  3336 ;;		_parseDHT11Byte
  3337 ;;		_printf
  3338 ;; This function is called by:
  3339 ;;		Startup code after reset
  3340 ;; This function uses a non-reentrant model
  3341 ;;
  3342                           
  3343     0036                     _main:	
  3344                           ;psect for function _main
  3345                           
  3346     0036                     l1867:	
  3347                           ;incstack = 0
  3348                           ; Regs used in _main: [wreg-fsr1h+status,2+status,0+pclath+cstack]
  3349                           
  3350                           
  3351                           ;main.c: 75:     SYSTEM_Initialize();
  3352     0036  3184  2448  3180   	fcall	_SYSTEM_Initialize
  3353     0039                     l1869:
  3354     0039  0140               	movlb	0	; select bank0
  3355     003A  1499               	bsf	25,1	;volatile
  3356     003B                     l1871:
  3357                           
  3358                           ;main.c: 79:     _delay((unsigned long)((1000)*(32000000/4000.0)));
  3359     003B  3029               	movlw	41
  3360     003C  0140               	movlb	0	; select bank0
  3361     003D  00B1               	movwf	??_main+1
  3362     003E  3096               	movlw	150
  3363     003F  00B0               	movwf	??_main
  3364     0040  307F               	movlw	127
  3365     0041                     u847:
  3366     0041  0B89               	decfsz	9,f
  3367     0042  2841               	goto	u847
  3368     0043  0BB0               	decfsz	??_main,f
  3369     0044  2841               	goto	u847
  3370     0045  0BB1               	decfsz	??_main+1,f
  3371     0046  2841               	goto	u847
  3372     0047                     l1873:
  3373     0047  0140               	movlb	0	; select bank0
  3374     0048  1293               	bcf	19,5	;volatile
  3375     0049                     l1875:
  3376     0049  1699               	bsf	25,5	;volatile
  3377     004A                     l1877:
  3378     004A  017D               	movlb	61	; select bank61
  3379     004B  1697               	bsf	23,5	;volatile
  3380     004C                     l1879:
  3381                           
  3382                           ;main.c: 83:     _delay((unsigned long)((1000)*(32000000/4000.0)));
  3383     004C  3029               	movlw	41
  3384     004D  0140               	movlb	0	; select bank0
  3385     004E  00B1               	movwf	??_main+1
  3386     004F  3096               	movlw	150
  3387     0050  00B0               	movwf	??_main
  3388     0051  307F               	movlw	127
  3389     0052                     u857:
  3390     0052  0B89               	decfsz	9,f
  3391     0053  2852               	goto	u857
  3392     0054  0BB0               	decfsz	??_main,f
  3393     0055  2852               	goto	u857
  3394     0056  0BB1               	decfsz	??_main+1,f
  3395     0057  2852               	goto	u857
  3396     0058                     l360:	
  3397                           ;main.c: 85:     while(1)
  3398                           
  3399                           
  3400                           ;main.c: 86:     {;main.c: 87:         dht11Start();
  3401     0058  3183  23B2  3180   	fcall	_dht11Start
  3402                           
  3403                           ;main.c: 88:         uint8_t status = dht11CheckResponse();
  3404     005B  3183  2345  3180   	fcall	_dht11CheckResponse
  3405     005E  0140               	movlb	0	; select bank0
  3406     005F  00BE               	movwf	main@status
  3407     0060                     l1881:
  3408                           
  3409                           ;main.c: 89:         if(status == DHT11_OK) {
  3410     0060  30CA               	movlw	202
  3411     0061  063E               	xorwf	main@status,w
  3412     0062  1D03               	btfss	3,2
  3413     0063  2865               	goto	u761
  3414     0064  2866               	goto	u760
  3415     0065                     u761:
  3416     0065  2858               	goto	l360
  3417     0066                     u760:
  3418     0066                     l1883:
  3419                           
  3420                           ;main.c: 92:             uint8_t data[80];;main.c: 93:             for(uint8_t i = 0; i 
      +                          < 80; i = i + 2) {
  3421     0066  01C6               	clrf	main@i
  3422     0067                     l1889:
  3423                           
  3424                           ;main.c: 96:                 uint8_t lowTick = 0;
  3425     0067  01C4               	clrf	main@lowTick
  3426                           
  3427                           ;main.c: 97:                 while(!PORTBbits.RB5 && lowTick < TIMEOUT) {
  3428     0068  286D               	goto	l1893
  3429     0069                     l1891:
  3430                           
  3431                           ;main.c: 98:                     lowTick++;
  3432     0069  3001               	movlw	1
  3433     006A  00B0               	movwf	??_main
  3434     006B  0830               	movf	??_main,w
  3435     006C  07C4               	addwf	main@lowTick,f
  3436     006D                     l1893:
  3437                           
  3438                           ;main.c: 97:                 while(!PORTBbits.RB5 && lowTick < TIMEOUT) {
  3439     006D  1A8D               	btfsc	13,5	;volatile
  3440     006E  2870               	goto	u771
  3441     006F  2871               	goto	u770
  3442     0070                     u771:
  3443     0070  2877               	goto	l1897
  3444     0071                     u770:
  3445     0071                     l1895:
  3446     0071  3064               	movlw	100
  3447     0072  0244               	subwf	main@lowTick,w
  3448     0073  1C03               	skipc
  3449     0074  2876               	goto	u781
  3450     0075  2877               	goto	u780
  3451     0076                     u781:
  3452     0076  2869               	goto	l1891
  3453     0077                     u780:
  3454     0077                     l1897:
  3455                           
  3456                           ;main.c: 103:                 uint8_t highTick = 0;
  3457     0077  01C5               	clrf	main@highTick
  3458                           
  3459                           ;main.c: 104:                 while(PORTBbits.RB5 && highTick < TIMEOUT) {
  3460     0078  287D               	goto	l1901
  3461     0079                     l1899:
  3462                           
  3463                           ;main.c: 105:                     highTick++;
  3464     0079  3001               	movlw	1
  3465     007A  00B0               	movwf	??_main
  3466     007B  0830               	movf	??_main,w
  3467     007C  07C5               	addwf	main@highTick,f
  3468     007D                     l1901:
  3469                           
  3470                           ;main.c: 104:                 while(PORTBbits.RB5 && highTick < TIMEOUT) {
  3471     007D  1E8D               	btfss	13,5	;volatile
  3472     007E  2880               	goto	u791
  3473     007F  2881               	goto	u790
  3474     0080                     u791:
  3475     0080  2887               	goto	l1905
  3476     0081                     u790:
  3477     0081                     l1903:
  3478     0081  3064               	movlw	100
  3479     0082  0245               	subwf	main@highTick,w
  3480     0083  1C03               	skipc
  3481     0084  2886               	goto	u801
  3482     0085  2887               	goto	u800
  3483     0086                     u801:
  3484     0086  2879               	goto	l1899
  3485     0087                     u800:
  3486     0087                     l1905:
  3487                           
  3488                           ;main.c: 111:                 data[i] = lowTick;
  3489     0087  0846               	movf	main@i,w
  3490     0088  3EA0               	addlw	(low (main@data| 0))& (0+255)
  3491     0089  0086               	movwf	6
  3492     008A  0187               	clrf	7
  3493     008B  0844               	movf	main@lowTick,w
  3494     008C  0081               	movwf	1
  3495                           
  3496                           ;main.c: 112:                 data[i + 1] = highTick;
  3497     008D  0846               	movf	main@i,w
  3498     008E  3E01               	addlw	1
  3499     008F  3EA0               	addlw	(low (main@data| 0))& (0+255)
  3500     0090  0086               	movwf	6
  3501     0091  0187               	clrf	7
  3502     0092  0845               	movf	main@highTick,w
  3503     0093  0081               	movwf	1
  3504     0094                     l1907:
  3505                           
  3506                           ;main.c: 113:             }
  3507     0094  0846               	movf	main@i,w
  3508     0095  3E02               	addlw	2
  3509     0096  00C6               	movwf	main@i
  3510     0097                     l1909:
  3511     0097  3050               	movlw	80
  3512     0098  0246               	subwf	main@i,w
  3513     0099  1C03               	skipc
  3514     009A  289C               	goto	u811
  3515     009B  289D               	goto	u810
  3516     009C                     u811:
  3517     009C  2867               	goto	l1889
  3518     009D                     u810:
  3519     009D                     l1911:
  3520                           
  3521                           ;main.c: 117:             if(dht11ValidateResponse(data) == DHT11_OK) {
  3522     009D  30A0               	movlw	(low (main@data| 0))& (0+255)
  3523     009E  3183  23FD  3180   	fcall	_dht11ValidateResponse
  3524     00A1  3ACA               	xorlw	202
  3525     00A2  1D03               	skipz
  3526     00A3  28A5               	goto	u821
  3527     00A4  28A6               	goto	u820
  3528     00A5                     u821:
  3529     00A5  2858               	goto	l360
  3530     00A6                     u820:
  3531     00A6                     l1913:
  3532                           
  3533                           ;main.c: 119:                 uint8_t humidity = parseDHT11Byte(data, (uint8_t) 0);
  3534     00A6  01F0               	clrf	parseDHT11Byte@byte
  3535     00A7  30A0               	movlw	(low (main@data| 0))& (0+255)
  3536     00A8  3182  22AA  3180   	fcall	_parseDHT11Byte
  3537     00AB  0140               	movlb	0	; select bank0
  3538     00AC  00C0               	movwf	main@humidity
  3539                           
  3540                           ;main.c: 120:                 uint8_t humidityDecimal = parseDHT11Byte(data, (uint8_t) 1
      +                          );
  3541     00AD  01F0               	clrf	parseDHT11Byte@byte
  3542     00AE  0AF0               	incf	parseDHT11Byte@byte,f
  3543     00AF  30A0               	movlw	(low (main@data| 0))& (0+255)
  3544     00B0  3182  22AA  3180   	fcall	_parseDHT11Byte
  3545     00B3  0140               	movlb	0	; select bank0
  3546     00B4  00C1               	movwf	main@humidityDecimal
  3547                           
  3548                           ;main.c: 121:                 uint8_t temp = parseDHT11Byte(data, (uint8_t) 2);
  3549     00B5  3002               	movlw	2
  3550     00B6  00F0               	movwf	parseDHT11Byte@byte
  3551     00B7  30A0               	movlw	(low (main@data| 0))& (0+255)
  3552     00B8  3182  22AA  3180   	fcall	_parseDHT11Byte
  3553     00BB  0140               	movlb	0	; select bank0
  3554     00BC  00C2               	movwf	main@temp
  3555                           
  3556                           ;main.c: 122:                 uint8_t tempDecimal = parseDHT11Byte(data, (uint8_t) 3);
  3557     00BD  3003               	movlw	3
  3558     00BE  00F0               	movwf	parseDHT11Byte@byte
  3559     00BF  30A0               	movlw	(low (main@data| 0))& (0+255)
  3560     00C0  3182  22AA  3180   	fcall	_parseDHT11Byte
  3561     00C3  0140               	movlb	0	; select bank0
  3562     00C4  00C3               	movwf	main@tempDecimal
  3563                           
  3564                           ;main.c: 123:                 uint8_t checkSum = parseDHT11Byte(data, (uint8_t) 4);
  3565     00C5  3004               	movlw	4
  3566     00C6  00F0               	movwf	parseDHT11Byte@byte
  3567     00C7  30A0               	movlw	(low (main@data| 0))& (0+255)
  3568     00C8  3182  22AA  3180   	fcall	_parseDHT11Byte
  3569     00CB  0140               	movlb	0	; select bank0
  3570     00CC  00BF               	movwf	main@checkSum
  3571     00CD                     l1915:
  3572                           
  3573                           ;main.c: 125:                 if (checkSum == ((humidity + humidityDecimal + temp + temp
      +                          Decimal) & 0xFF)) {
  3574     00CD  0843               	movf	main@tempDecimal,w
  3575     00CE  00B0               	movwf	??_main
  3576     00CF  01B1               	clrf	??_main+1
  3577     00D0  0842               	movf	main@temp,w
  3578     00D1  00B2               	movwf	??_main+2
  3579     00D2  01B3               	clrf	??_main+3
  3580     00D3  0840               	movf	main@humidity,w
  3581     00D4  0741               	addwf	main@humidityDecimal,w
  3582     00D5  00B4               	movwf	??_main+4
  3583     00D6  01B5               	clrf	??_main+5
  3584     00D7  0DB5               	rlf	??_main+5,f
  3585     00D8  0832               	movf	??_main+2,w
  3586     00D9  0734               	addwf	??_main+4,w
  3587     00DA  00B6               	movwf	??_main+6
  3588     00DB  0833               	movf	??_main+3,w
  3589     00DC  3D35               	addwfc	??_main+5,w
  3590     00DD  00B7               	movwf	??_main+7
  3591     00DE  0830               	movf	??_main,w
  3592     00DF  0736               	addwf	??_main+6,w
  3593     00E0  00B8               	movwf	??_main+8
  3594     00E1  0831               	movf	??_main+1,w
  3595     00E2  3D37               	addwfc	??_main+7,w
  3596     00E3  00B9               	movwf	??_main+9
  3597     00E4  30FF               	movlw	255
  3598     00E5  0538               	andwf	??_main+8,w
  3599     00E6  00BA               	movwf	??_main+10
  3600     00E7  3000               	movlw	0
  3601     00E8  0539               	andwf	??_main+9,w
  3602     00E9  00BB               	movwf	??_main+11
  3603     00EA  083F               	movf	main@checkSum,w
  3604     00EB  00BC               	movwf	??_main+12
  3605     00EC  01BD               	clrf	??_main+13
  3606     00ED  083B               	movf	??_main+11,w
  3607     00EE  063D               	xorwf	??_main+13,w
  3608     00EF  1D03               	skipz
  3609     00F0  28F3               	goto	u835
  3610     00F1  083A               	movf	??_main+10,w
  3611     00F2  063C               	xorwf	??_main+12,w
  3612     00F3                     u835:
  3613     00F3  1D03               	skipz
  3614     00F4  28F6               	goto	u831
  3615     00F5  28F7               	goto	u830
  3616     00F6                     u831:
  3617     00F6  28FE               	goto	l375
  3618     00F7                     u830:
  3619     00F7                     l1917:
  3620                           
  3621                           ;main.c: 126:                     printf("VALID");
  3622     00F7  30AC               	movlw	low (STR_1| (0+32768))
  3623     00F8  00AD               	movwf	printf@fmt
  3624     00F9  3083               	movlw	high (STR_1| (0+32768))
  3625     00FA  00AE               	movwf	printf@fmt+1
  3626     00FB  3184  2438  3180   	fcall	_printf
  3627     00FE                     l375:	
  3628                           ;main.c: 127:                 }
  3629                           
  3630                           
  3631                           ;main.c: 129:                 printf(humidity);
  3632     00FE  0140               	movlb	0	; select bank0
  3633     00FF  0840               	movf	main@humidity,w
  3634     0100  00B0               	movwf	??_main
  3635     0101  01B1               	clrf	??_main+1
  3636     0102  0830               	movf	??_main,w
  3637     0103  00AD               	movwf	printf@fmt
  3638     0104  0831               	movf	??_main+1,w
  3639     0105  00AE               	movwf	printf@fmt+1
  3640     0106  3184  2438  3180   	fcall	_printf
  3641                           
  3642                           ;main.c: 130:                 printf(humidityDecimal);
  3643     0109  0140               	movlb	0	; select bank0
  3644     010A  0841               	movf	main@humidityDecimal,w
  3645     010B  00B0               	movwf	??_main
  3646     010C  01B1               	clrf	??_main+1
  3647     010D  0830               	movf	??_main,w
  3648     010E  00AD               	movwf	printf@fmt
  3649     010F  0831               	movf	??_main+1,w
  3650     0110  00AE               	movwf	printf@fmt+1
  3651     0111  3184  2438  3180   	fcall	_printf
  3652                           
  3653                           ;main.c: 131:                 printf(temp);
  3654     0114  0140               	movlb	0	; select bank0
  3655     0115  0842               	movf	main@temp,w
  3656     0116  00B0               	movwf	??_main
  3657     0117  01B1               	clrf	??_main+1
  3658     0118  0830               	movf	??_main,w
  3659     0119  00AD               	movwf	printf@fmt
  3660     011A  0831               	movf	??_main+1,w
  3661     011B  00AE               	movwf	printf@fmt+1
  3662     011C  3184  2438  3180   	fcall	_printf
  3663                           
  3664                           ;main.c: 132:                 printf(tempDecimal);
  3665     011F  0140               	movlb	0	; select bank0
  3666     0120  0843               	movf	main@tempDecimal,w
  3667     0121  00B0               	movwf	??_main
  3668     0122  01B1               	clrf	??_main+1
  3669     0123  0830               	movf	??_main,w
  3670     0124  00AD               	movwf	printf@fmt
  3671     0125  0831               	movf	??_main+1,w
  3672     0126  00AE               	movwf	printf@fmt+1
  3673     0127  3184  2438  3180   	fcall	_printf
  3674                           
  3675                           ;main.c: 133:                 free(data);
  3676     012A  30A0               	movlw	(low (main@data| 0))& (0+255)
  3677     012B  3181  21DA  3180   	fcall	_free
  3678     012E  2858               	goto	l360
  3679     012F  3180  2814         	ljmp	start
  3680     0131                     __end_of_main:
  3681                           
  3682                           	psect	text1
  3683     0438                     __ptext1:	
  3684 ;; *************** function _printf *****************
  3685 ;; Defined at:
  3686 ;;		line 5 in file "C:\Program Files\Microchip\xc8\v2.41\pic\sources\c99\common\printf.c"
  3687 ;; Parameters:    Size  Location     Type
  3688 ;;  fmt             2   13[BANK0 ] PTR const unsigned char 
  3689 ;;		 -> ROM(16384), STR_1(6), 
  3690 ;; Auto vars:     Size  Location     Type
  3691 ;;  ret             2    0        int 
  3692 ;;  ap              1   15[BANK0 ] PTR void [1]
  3693 ;;		 -> ?_printf(2), 
  3694 ;; Return value:  Size  Location     Type
  3695 ;;                  2   13[BANK0 ] int 
  3696 ;; Registers used:
  3697 ;;		wreg, fsr0l, fsr0h, fsr1l, fsr1h, status,2, status,0, pclath, cstack
  3698 ;; Tracked objects:
  3699 ;;		On entry : 0/0
  3700 ;;		On exit  : 0/0
  3701 ;;		Unchanged: 0/0
  3702 ;; Data sizes:     COMMON   BANK0   BANK1   BANK2   BANK3   BANK4   BANK5   BANK6   BANK7   BANK8   BANK9  BANK10  BANK1
      +1  BANK12  BANK13  BANK14  BANK15  BANK16  BANK17  BANK18  BANK19  BANK20  BANK21  BANK22  BANK23  BANK24  BANK25
  3703 ;;      Params:         0       2       0       0       0       0       0       0       0       0       0       0       
      +0       0       0       0       0       0       0       0       0       0       0       0       0       0       0
  3704 ;;      Locals:         0       1       0       0       0       0       0       0       0       0       0       0       
      +0       0       0       0       0       0       0       0       0       0       0       0       0       0       0
  3705 ;;      Temps:          0       0       0       0       0       0       0       0       0       0       0       0       
      +0       0       0       0       0       0       0       0       0       0       0       0       0       0       0
  3706 ;;      Totals:         0       3       0       0       0       0       0       0       0       0       0       0       
      +0       0       0       0       0       0       0       0       0       0       0       0       0       0       0
  3707 ;;Total ram usage:        3 bytes
  3708 ;; Hardware stack levels used: 1
  3709 ;; Hardware stack levels required when called: 6
  3710 ;; This function calls:
  3711 ;;		_vfprintf
  3712 ;; This function is called by:
  3713 ;;		_main
  3714 ;; This function uses a non-reentrant model
  3715 ;;
  3716                           
  3717     0438                     _printf:	
  3718                           ;psect for function _printf
  3719                           
  3720     0438                     l1797:	
  3721                           ;incstack = 0
  3722                           ; Regs used in _printf: [wreg-fsr1h+status,2+status,0+pclath+cstack]
  3723                           
  3724     0438  302F               	movlw	(low ((?_printf| 0+2)))& (0+255)
  3725     0439  0140               	movlb	0	; select bank0
  3726     043A  00AF               	movwf	printf@ap
  3727     043B                     l1799:
  3728     043B  3000               	movlw	0
  3729     043C  00A6               	movwf	vfprintf@fp
  3730     043D  00A7               	movwf	vfprintf@fp+1
  3731     043E  082E               	movf	printf@fmt+1,w
  3732     043F  00A9               	movwf	vfprintf@fmt+1
  3733     0440  082D               	movf	printf@fmt,w
  3734     0441  00A8               	movwf	vfprintf@fmt
  3735     0442  302F               	movlw	(low (printf@ap| 0))& (0+255)
  3736     0443  00AA               	movwf	vfprintf@ap
  3737     0444  3183  23D9  3184   	fcall	_vfprintf
  3738     0447                     l1062:
  3739     0447  0008               	return
  3740     0448                     __end_of_printf:
  3741                           
  3742                           	psect	text2
  3743     03D9                     __ptext2:	
  3744 ;; *************** function _vfprintf *****************
  3745 ;; Defined at:
  3746 ;;		line 1546 in file "C:\Program Files\Microchip\xc8\v2.41\pic\sources\c99\common\doprnt.c"
  3747 ;; Parameters:    Size  Location     Type
  3748 ;;  fp              2    6[BANK0 ] PTR struct _IO_FILE
  3749 ;;		 -> NULL(0), 
  3750 ;;  fmt             2    8[BANK0 ] PTR const unsigned char 
  3751 ;;		 -> ROM(16384), STR_1(6), 
  3752 ;;  ap              1   10[BANK0 ] PTR PTR void 
  3753 ;;		 -> printf@ap(1), 
  3754 ;; Auto vars:     Size  Location     Type
  3755 ;;  cfmt            2   11[BANK0 ] PTR unsigned char 
  3756 ;;		 -> ROM(16384), STR_1(6), 
  3757 ;; Return value:  Size  Location     Type
  3758 ;;                  2    6[BANK0 ] int 
  3759 ;; Registers used:
  3760 ;;		wreg, fsr0l, fsr0h, fsr1l, fsr1h, status,2, status,0, pclath, cstack
  3761 ;; Tracked objects:
  3762 ;;		On entry : 0/0
  3763 ;;		On exit  : 0/0
  3764 ;;		Unchanged: 0/0
  3765 ;; Data sizes:     COMMON   BANK0   BANK1   BANK2   BANK3   BANK4   BANK5   BANK6   BANK7   BANK8   BANK9  BANK10  BANK1
      +1  BANK12  BANK13  BANK14  BANK15  BANK16  BANK17  BANK18  BANK19  BANK20  BANK21  BANK22  BANK23  BANK24  BANK25
  3766 ;;      Params:         0       5       0       0       0       0       0       0       0       0       0       0       
      +0       0       0       0       0       0       0       0       0       0       0       0       0       0       0
  3767 ;;      Locals:         0       2       0       0       0       0       0       0       0       0       0       0       
      +0       0       0       0       0       0       0       0       0       0       0       0       0       0       0
  3768 ;;      Temps:          1       0       0       0       0       0       0       0       0       0       0       0       
      +0       0       0       0       0       0       0       0       0       0       0       0       0       0       0
  3769 ;;      Totals:         1       7       0       0       0       0       0       0       0       0       0       0       
      +0       0       0       0       0       0       0       0       0       0       0       0       0       0       0
  3770 ;;Total ram usage:        8 bytes
  3771 ;; Hardware stack levels used: 1
  3772 ;; Hardware stack levels required when called: 5
  3773 ;; This function calls:
  3774 ;;		_vfpfcnvrt
  3775 ;; This function is called by:
  3776 ;;		_printf
  3777 ;; This function uses a non-reentrant model
  3778 ;;
  3779                           
  3780     03D9                     _vfprintf:	
  3781                           ;psect for function _vfprintf
  3782                           
  3783     03D9                     l1693:	
  3784                           ;incstack = 0
  3785                           ; Regs used in _vfprintf: [wreg-fsr1h+status,2+status,0+pclath+cstack]
  3786                           
  3787                           
  3788                           ;C:\Program Files\Microchip\xc8\v2.41\pic\sources\c99\common\doprnt.c: 1546: int vfprint
      +                          f(FILE *fp, const char *fmt, va_list ap);C:\Program Files\Microchip\xc8\v2.41\pic\source
      +                          s\c99\common\doprnt.c: 1547: {;C:\Program Files\Microchip\xc8\v2.41\pic\sources\c99\comm
      +                          on\doprnt.c: 1549:     char *cfmt;;C:\Program Files\Microchip\xc8\v2.41\pic\sources\c99\
      +                          common\doprnt.c: 1551:     cfmt = (char *)fmt;
  3789     03D9  0140               	movlb	0	; select bank0
  3790     03DA  0829               	movf	vfprintf@fmt+1,w
  3791     03DB  00AC               	movwf	vfprintf@cfmt+1
  3792     03DC  0828               	movf	vfprintf@fmt,w
  3793     03DD  00AB               	movwf	vfprintf@cfmt
  3794     03DE                     l1695:
  3795                           
  3796                           ;C:\Program Files\Microchip\xc8\v2.41\pic\sources\c99\common\doprnt.c: 1553:     nout = 
      +                          0;
  3797     03DE  01C7               	clrf	_nout
  3798     03DF  01C8               	clrf	_nout+1
  3799                           
  3800                           ;C:\Program Files\Microchip\xc8\v2.41\pic\sources\c99\common\doprnt.c: 1555:     while (
      +                          *cfmt) {
  3801     03E0  2BF1               	goto	l1699
  3802     03E1                     l1697:
  3803                           
  3804                           ;C:\Program Files\Microchip\xc8\v2.41\pic\sources\c99\common\doprnt.c: 1557:         nou
      +                          t +=
  3805     03E1  0827               	movf	vfprintf@fp+1,w
  3806     03E2  00FA               	movwf	vfpfcnvrt@fp+1
  3807     03E3  0826               	movf	vfprintf@fp,w
  3808     03E4  00F9               	movwf	vfpfcnvrt@fp
  3809     03E5  302B               	movlw	(low (vfprintf@cfmt| 0))& (0+255)
  3810     03E6  00FB               	movwf	vfpfcnvrt@fmt
  3811     03E7  082A               	movf	vfprintf@ap,w
  3812     03E8  00FC               	movwf	vfpfcnvrt@ap
  3813     03E9  3181  2131  3183   	fcall	_vfpfcnvrt
  3814     03EC  0879               	movf	?_vfpfcnvrt,w
  3815     03ED  0140               	movlb	0	; select bank0
  3816     03EE  07C7               	addwf	_nout,f
  3817     03EF  087A               	movf	?_vfpfcnvrt+1,w
  3818     03F0  3DC8               	addwfc	_nout+1,f
  3819     03F1                     l1699:
  3820                           
  3821                           ;C:\Program Files\Microchip\xc8\v2.41\pic\sources\c99\common\doprnt.c: 1555:     while (
      +                          *cfmt) {
  3822     03F1  082B               	movf	vfprintf@cfmt,w
  3823     03F2  0084               	movwf	4
  3824     03F3  082C               	movf	vfprintf@cfmt+1,w
  3825     03F4  0085               	movwf	5
  3826     03F5  0012               	moviw fsr0++
  3827     03F6  1D03               	btfss	3,2
  3828     03F7  2BF9               	goto	u541
  3829     03F8  2BFA               	goto	u540
  3830     03F9                     u541:
  3831     03F9  2BE1               	goto	l1697
  3832     03FA                     u540:
  3833     03FA                     l1701:
  3834                           
  3835                           ;C:\Program Files\Microchip\xc8\v2.41\pic\sources\c99\common\doprnt.c: 1564:  return 0;
  3836     03FA  01A6               	clrf	?_vfprintf
  3837     03FB  01A7               	clrf	?_vfprintf+1
  3838     03FC                     l1102:
  3839     03FC  0008               	return
  3840     03FD                     __end_of_vfprintf:
  3841                           
  3842                           	psect	text3
  3843     0131                     __ptext3:	
  3844 ;; *************** function _vfpfcnvrt *****************
  3845 ;; Defined at:
  3846 ;;		line 1048 in file "C:\Program Files\Microchip\xc8\v2.41\pic\sources\c99\common\doprnt.c"
  3847 ;; Parameters:    Size  Location     Type
  3848 ;;  fp              2    9[COMMON] PTR struct _IO_FILE
  3849 ;;		 -> NULL(0), 
  3850 ;;  fmt             1   11[COMMON] PTR PTR unsigned char 
  3851 ;;		 -> vfprintf@cfmt(2), 
  3852 ;;  ap              1   12[COMMON] PTR PTR void 
  3853 ;;		 -> printf@ap(1), 
  3854 ;; Auto vars:     Size  Location     Type
  3855 ;;  convarg         4    0        struct .
  3856 ;;  cp              2    4[BANK0 ] PTR unsigned char 
  3857 ;;		 -> ROM(16384), STR_1(6), 
  3858 ;;  i               2    0        int 
  3859 ;;  done            2    0        int 
  3860 ;;  c               1    0        unsigned char 
  3861 ;; Return value:  Size  Location     Type
  3862 ;;                  2    9[COMMON] int 
  3863 ;; Registers used:
  3864 ;;		wreg, fsr0l, fsr0h, fsr1l, fsr1h, status,2, status,0, pclath, cstack
  3865 ;; Tracked objects:
  3866 ;;		On entry : 0/0
  3867 ;;		On exit  : 0/0
  3868 ;;		Unchanged: 0/0
  3869 ;; Data sizes:     COMMON   BANK0   BANK1   BANK2   BANK3   BANK4   BANK5   BANK6   BANK7   BANK8   BANK9  BANK10  BANK1
      +1  BANK12  BANK13  BANK14  BANK15  BANK16  BANK17  BANK18  BANK19  BANK20  BANK21  BANK22  BANK23  BANK24  BANK25
  3870 ;;      Params:         4       0       0       0       0       0       0       0       0       0       0       0       
      +0       0       0       0       0       0       0       0       0       0       0       0       0       0       0
  3871 ;;      Locals:         0       2       0       0       0       0       0       0       0       0       0       0       
      +0       0       0       0       0       0       0       0       0       0       0       0       0       0       0
  3872 ;;      Temps:          0       4       0       0       0       0       0       0       0       0       0       0       
      +0       0       0       0       0       0       0       0       0       0       0       0       0       0       0
  3873 ;;      Totals:         4       6       0       0       0       0       0       0       0       0       0       0       
      +0       0       0       0       0       0       0       0       0       0       0       0       0       0       0
  3874 ;;Total ram usage:       10 bytes
  3875 ;; Hardware stack levels used: 1
  3876 ;; Hardware stack levels required when called: 4
  3877 ;; This function calls:
  3878 ;;		_fputc
  3879 ;; This function is called by:
  3880 ;;		_vfprintf
  3881 ;; This function uses a non-reentrant model
  3882 ;;
  3883                           
  3884     0131                     _vfpfcnvrt:	
  3885                           ;psect for function _vfpfcnvrt
  3886                           
  3887     0131                     l1581:	
  3888                           ;incstack = 0
  3889                           ; Regs used in _vfpfcnvrt: [wreg-fsr1h+status,2+status,0+pclath+cstack]
  3890                           
  3891                           
  3892                           ;C:\Program Files\Microchip\xc8\v2.41\pic\sources\c99\common\doprnt.c: 1048: vfpfcnvrt(F
      +                          ILE *fp, char *fmt[], va_list ap);C:\Program Files\Microchip\xc8\v2.41\pic\sources\c99\c
      +                          ommon\doprnt.c: 1049: {;C:\Program Files\Microchip\xc8\v2.41\pic\sources\c99\common\dopr
      +                          nt.c: 1050:     char c, *cp;;C:\Program Files\Microchip\xc8\v2.41\pic\sources\c99\common
      +                          \doprnt.c: 1051:     int done, i;;C:\Program Files\Microchip\xc8\v2.41\pic\sources\c99\c
      +                          ommon\doprnt.c: 1059:  } convarg;;C:\Program Files\Microchip\xc8\v2.41\pic\sources\c99\c
      +                          ommon\doprnt.c: 1062:     if ((*fmt)[0] == '%') {
  3893     0131  087B               	movf	vfpfcnvrt@fmt,w
  3894     0132  0086               	movwf	6
  3895     0133  0187               	clrf	7
  3896     0134  3F40               	moviw [0]fsr1
  3897     0135  0140               	movlb	0	; select bank0
  3898     0136  00A0               	movwf	??_vfpfcnvrt
  3899     0137  3F41               	moviw [1]fsr1
  3900     0138  00A1               	movwf	??_vfpfcnvrt+1
  3901     0139  0820               	movf	??_vfpfcnvrt,w
  3902     013A  0084               	movwf	4
  3903     013B  0821               	movf	??_vfpfcnvrt+1,w
  3904     013C  0085               	movwf	5
  3905     013D  0012               	moviw fsr0++
  3906     013E  3A25               	xorlw	37
  3907     013F  1D03               	btfss	3,2
  3908     0140  2942               	goto	u511
  3909     0141  2943               	goto	u510
  3910     0142                     u511:
  3911     0142  29B7               	goto	l1617
  3912     0143                     u510:
  3913     0143                     l1583:
  3914                           
  3915                           ;C:\Program Files\Microchip\xc8\v2.41\pic\sources\c99\common\doprnt.c: 1063:         ++*
      +                          fmt;
  3916     0143  087B               	movf	vfpfcnvrt@fmt,w
  3917     0144  0086               	movwf	6
  3918     0145  0187               	clrf	7
  3919     0146  3001               	movlw	1
  3920     0147  0781               	addwf	1,f
  3921     0148  3141               	addfsr 1,1
  3922     0149  1803               	skipnc
  3923     014A  0A81               	incf	1,f
  3924     014B                     l1585:
  3925                           
  3926                           ;C:\Program Files\Microchip\xc8\v2.41\pic\sources\c99\common\doprnt.c: 1065:         fla
      +                          gs = width = 0;
  3927     014B  01C9               	clrf	_width
  3928     014C  01CA               	clrf	_width+1
  3929     014D  1003               	clrc
  3930     014E  3000               	movlw	0
  3931     014F  1803               	btfsc	3,0
  3932     0150  3001               	movlw	1
  3933     0151  00D5               	movwf	_flags
  3934     0152                     l1587:
  3935                           
  3936                           ;C:\Program Files\Microchip\xc8\v2.41\pic\sources\c99\common\doprnt.c: 1066:         pre
      +                          c = -1;
  3937     0152  30FF               	movlw	255
  3938     0153  00CB               	movwf	_prec
  3939     0154  30FF               	movlw	255
  3940     0155  00CC               	movwf	_prec+1
  3941     0156                     l1589:
  3942                           
  3943                           ;C:\Program Files\Microchip\xc8\v2.41\pic\sources\c99\common\doprnt.c: 1143:   cp = *fmt
      +                          ;
  3944     0156  087B               	movf	vfpfcnvrt@fmt,w
  3945     0157  0086               	movwf	6
  3946     0158  0187               	clrf	7
  3947     0159  3F40               	moviw [0]fsr1
  3948     015A  00A4               	movwf	vfpfcnvrt@cp
  3949     015B  3F41               	moviw [1]fsr1
  3950     015C  00A5               	movwf	vfpfcnvrt@cp+1
  3951     015D                     l1591:
  3952                           
  3953                           ;C:\Program Files\Microchip\xc8\v2.41\pic\sources\c99\common\doprnt.c: 1348:   if (*cp =
      +                          = 'n') {
  3954     015D  0824               	movf	vfpfcnvrt@cp,w
  3955     015E  0084               	movwf	4
  3956     015F  0825               	movf	vfpfcnvrt@cp+1,w
  3957     0160  0085               	movwf	5
  3958     0161  0012               	moviw fsr0++
  3959     0162  3A6E               	xorlw	110
  3960     0163  1D03               	btfss	3,2
  3961     0164  2966               	goto	u521
  3962     0165  2967               	goto	u520
  3963     0166                     u521:
  3964     0166  2985               	goto	l1601
  3965     0167                     u520:
  3966     0167                     l1593:
  3967                           
  3968                           ;C:\Program Files\Microchip\xc8\v2.41\pic\sources\c99\common\doprnt.c: 1391:    *(*(int*
      +                           *)__va_arg(*(int* **)ap, (int*)0)) = (int) nout;
  3969     0167  087C               	movf	vfpfcnvrt@ap,w
  3970     0168  0086               	movwf	6
  3971     0169  0187               	clrf	7
  3972     016A  3F40               	moviw [0]fsr1
  3973     016B  0084               	movwf	4
  3974     016C  0185               	clrf	5
  3975     016D  0A81               	incf	1,f
  3976     016E  0800               	movf	0,w
  3977     016F  0086               	movwf	6
  3978     0170  0187               	clrf	7
  3979     0171  0847               	movf	_nout,w
  3980     0172  3FC0               	movwi [0]fsr1
  3981     0173  0848               	movf	_nout+1,w
  3982     0174  3FC1               	movwi [1]fsr1
  3983     0175                     l1595:
  3984                           
  3985                           ;C:\Program Files\Microchip\xc8\v2.41\pic\sources\c99\common\doprnt.c: 1393:    *fmt = c
      +                          p+1;
  3986     0175  0824               	movf	vfpfcnvrt@cp,w
  3987     0176  3E01               	addlw	1
  3988     0177  00A0               	movwf	??_vfpfcnvrt
  3989     0178  3000               	movlw	0
  3990     0179  3D25               	addwfc	vfpfcnvrt@cp+1,w
  3991     017A  00A1               	movwf	??_vfpfcnvrt+1
  3992     017B  087B               	movf	vfpfcnvrt@fmt,w
  3993     017C  0086               	movwf	6
  3994     017D  0187               	clrf	7
  3995     017E  0820               	movf	??_vfpfcnvrt,w
  3996     017F  3FC0               	movwi [0]fsr1
  3997     0180  0821               	movf	??_vfpfcnvrt+1,w
  3998     0181  3FC1               	movwi [1]fsr1
  3999     0182                     l1597:
  4000                           
  4001                           ;C:\Program Files\Microchip\xc8\v2.41\pic\sources\c99\common\doprnt.c: 1394:    return (
      +                          int) 0;
  4002     0182  01F9               	clrf	?_vfpfcnvrt
  4003     0183  01FA               	clrf	?_vfpfcnvrt+1
  4004     0184  29D9               	goto	l1095
  4005     0185                     l1601:
  4006                           
  4007                           ;C:\Program Files\Microchip\xc8\v2.41\pic\sources\c99\common\doprnt.c: 1527:         if 
      +                          ((*fmt)[0] == '%') {
  4008     0185  087B               	movf	vfpfcnvrt@fmt,w
  4009     0186  0086               	movwf	6
  4010     0187  0187               	clrf	7
  4011     0188  3F40               	moviw [0]fsr1
  4012     0189  00A0               	movwf	??_vfpfcnvrt
  4013     018A  3F41               	moviw [1]fsr1
  4014     018B  00A1               	movwf	??_vfpfcnvrt+1
  4015     018C  0820               	movf	??_vfpfcnvrt,w
  4016     018D  0084               	movwf	4
  4017     018E  0821               	movf	??_vfpfcnvrt+1,w
  4018     018F  0085               	movwf	5
  4019     0190  0012               	moviw fsr0++
  4020     0191  3A25               	xorlw	37
  4021     0192  1D03               	btfss	3,2
  4022     0193  2995               	goto	u531
  4023     0194  2996               	goto	u530
  4024     0195                     u531:
  4025     0195  29AE               	goto	l1611
  4026     0196                     u530:
  4027     0196                     l1603:
  4028                           
  4029                           ;C:\Program Files\Microchip\xc8\v2.41\pic\sources\c99\common\doprnt.c: 1528:            
      +                           ++*fmt;
  4030     0196  087B               	movf	vfpfcnvrt@fmt,w
  4031     0197  0086               	movwf	6
  4032     0198  0187               	clrf	7
  4033     0199  3001               	movlw	1
  4034     019A  0781               	addwf	1,f
  4035     019B  3141               	addfsr 1,1
  4036     019C  1803               	skipnc
  4037     019D  0A81               	incf	1,f
  4038     019E                     l1605:
  4039                           
  4040                           ;C:\Program Files\Microchip\xc8\v2.41\pic\sources\c99\common\doprnt.c: 1529:            
      +                           fputc((int)'%', fp);
  4041     019E  3025               	movlw	37
  4042     019F  00F0               	movwf	fputc@c
  4043     01A0  3000               	movlw	0
  4044     01A1  00F1               	movwf	fputc@c+1
  4045     01A2  087A               	movf	vfpfcnvrt@fp+1,w
  4046     01A3  00F3               	movwf	fputc@fp+1
  4047     01A4  0879               	movf	vfpfcnvrt@fp,w
  4048     01A5  00F2               	movwf	fputc@fp
  4049     01A6  3182  224D  3181   	fcall	_fputc
  4050     01A9                     l1607:
  4051                           
  4052                           ;C:\Program Files\Microchip\xc8\v2.41\pic\sources\c99\common\doprnt.c: 1530:            
      +                           return (int) 1;
  4053     01A9  3001               	movlw	1
  4054     01AA  00F9               	movwf	?_vfpfcnvrt
  4055     01AB  3000               	movlw	0
  4056     01AC  00FA               	movwf	?_vfpfcnvrt+1
  4057     01AD  29D9               	goto	l1095
  4058     01AE                     l1611:
  4059                           
  4060                           ;C:\Program Files\Microchip\xc8\v2.41\pic\sources\c99\common\doprnt.c: 1535:         ++*
      +                          fmt;
  4061     01AE  087B               	movf	vfpfcnvrt@fmt,w
  4062     01AF  0086               	movwf	6
  4063     01B0  0187               	clrf	7
  4064     01B1  3001               	movlw	1
  4065     01B2  0781               	addwf	1,f
  4066     01B3  3141               	addfsr 1,1
  4067     01B4  1803               	skipnc
  4068     01B5  0A81               	incf	1,f
  4069     01B6  2982               	goto	l1597
  4070     01B7                     l1617:
  4071                           
  4072                           ;C:\Program Files\Microchip\xc8\v2.41\pic\sources\c99\common\doprnt.c: 1540:     fputc((
      +                          int)(*fmt)[0], fp);
  4073     01B7  087B               	movf	vfpfcnvrt@fmt,w
  4074     01B8  0086               	movwf	6
  4075     01B9  0187               	clrf	7
  4076     01BA  3F40               	moviw [0]fsr1
  4077     01BB  00A0               	movwf	??_vfpfcnvrt
  4078     01BC  3F41               	moviw [1]fsr1
  4079     01BD  00A1               	movwf	??_vfpfcnvrt+1
  4080     01BE  0820               	movf	??_vfpfcnvrt,w
  4081     01BF  0084               	movwf	4
  4082     01C0  0821               	movf	??_vfpfcnvrt+1,w
  4083     01C1  0085               	movwf	5
  4084     01C2  0800               	movf	0,w	;code access
  4085     01C3  00A2               	movwf	??_vfpfcnvrt+2
  4086     01C4  01A3               	clrf	??_vfpfcnvrt+3
  4087     01C5  0822               	movf	??_vfpfcnvrt+2,w
  4088     01C6  00F0               	movwf	fputc@c
  4089     01C7  0823               	movf	??_vfpfcnvrt+3,w
  4090     01C8  00F1               	movwf	fputc@c+1
  4091     01C9  087A               	movf	vfpfcnvrt@fp+1,w
  4092     01CA  00F3               	movwf	fputc@fp+1
  4093     01CB  0879               	movf	vfpfcnvrt@fp,w
  4094     01CC  00F2               	movwf	fputc@fp
  4095     01CD  3182  224D  3181   	fcall	_fputc
  4096     01D0                     l1619:
  4097                           
  4098                           ;C:\Program Files\Microchip\xc8\v2.41\pic\sources\c99\common\doprnt.c: 1541:     ++*fmt;
  4099     01D0  087B               	movf	vfpfcnvrt@fmt,w
  4100     01D1  0086               	movwf	6
  4101     01D2  0187               	clrf	7
  4102     01D3  3001               	movlw	1
  4103     01D4  0781               	addwf	1,f
  4104     01D5  3141               	addfsr 1,1
  4105     01D6  1803               	skipnc
  4106     01D7  0A81               	incf	1,f
  4107     01D8  29A9               	goto	l1607
  4108     01D9                     l1095:
  4109     01D9  0008               	return
  4110     01DA                     __end_of_vfpfcnvrt:
  4111                           
  4112                           	psect	text4
  4113     024D                     __ptext4:	
  4114 ;; *************** function _fputc *****************
  4115 ;; Defined at:
  4116 ;;		line 8 in file "C:\Program Files\Microchip\xc8\v2.41\pic\sources\c99\common\nf_fputc.c"
  4117 ;; Parameters:    Size  Location     Type
  4118 ;;  c               2    0[COMMON] int 
  4119 ;;  fp              2    2[COMMON] PTR struct _IO_FILE
  4120 ;;		 -> NULL(0), 
  4121 ;; Auto vars:     Size  Location     Type
  4122 ;;		None
  4123 ;; Return value:  Size  Location     Type
  4124 ;;                  2    0[COMMON] int 
  4125 ;; Registers used:
  4126 ;;		wreg, fsr0l, fsr0h, fsr1l, fsr1h, status,2, status,0, pclath, cstack
  4127 ;; Tracked objects:
  4128 ;;		On entry : 0/0
  4129 ;;		On exit  : 0/0
  4130 ;;		Unchanged: 0/0
  4131 ;; Data sizes:     COMMON   BANK0   BANK1   BANK2   BANK3   BANK4   BANK5   BANK6   BANK7   BANK8   BANK9  BANK10  BANK1
      +1  BANK12  BANK13  BANK14  BANK15  BANK16  BANK17  BANK18  BANK19  BANK20  BANK21  BANK22  BANK23  BANK24  BANK25
  4132 ;;      Params:         4       0       0       0       0       0       0       0       0       0       0       0       
      +0       0       0       0       0       0       0       0       0       0       0       0       0       0       0
  4133 ;;      Locals:         0       0       0       0       0       0       0       0       0       0       0       0       
      +0       0       0       0       0       0       0       0       0       0       0       0       0       0       0
  4134 ;;      Temps:          5       0       0       0       0       0       0       0       0       0       0       0       
      +0       0       0       0       0       0       0       0       0       0       0       0       0       0       0
  4135 ;;      Totals:         9       0       0       0       0       0       0       0       0       0       0       0       
      +0       0       0       0       0       0       0       0       0       0       0       0       0       0       0
  4136 ;;Total ram usage:        9 bytes
  4137 ;; Hardware stack levels used: 1
  4138 ;; Hardware stack levels required when called: 3
  4139 ;; This function calls:
  4140 ;;		_putch
  4141 ;; This function is called by:
  4142 ;;		_vfpfcnvrt
  4143 ;; This function uses a non-reentrant model
  4144 ;;
  4145                           
  4146     024D                     _fputc:	
  4147                           ;psect for function _fputc
  4148                           
  4149     024D                     l1555:	
  4150                           ;incstack = 0
  4151                           ; Regs used in _fputc: [wreg-fsr1h+status,2+status,0+pclath+cstack]
  4152                           
  4153     024D  0872               	movf	fputc@fp,w
  4154     024E  0473               	iorwf	fputc@fp+1,w
  4155     024F  1903               	btfsc	3,2
  4156     0250  2A52               	goto	u451
  4157     0251  2A53               	goto	u450
  4158     0252                     u451:
  4159     0252  2A59               	goto	l1559
  4160     0253                     u450:
  4161     0253                     l1557:
  4162     0253  0872               	movf	fputc@fp,w
  4163     0254  0473               	iorwf	fputc@fp+1,w
  4164     0255  1D03               	btfss	3,2
  4165     0256  2A58               	goto	u461
  4166     0257  2A59               	goto	u460
  4167     0258                     u461:
  4168     0258  2A5E               	goto	l1561
  4169     0259                     u460:
  4170     0259                     l1559:
  4171     0259  0870               	movf	fputc@c,w
  4172     025A  3184  2491  3182   	fcall	_putch
  4173     025D  2AA9               	goto	l1114
  4174     025E                     l1561:
  4175     025E  0872               	movf	fputc@fp,w
  4176     025F  0086               	movwf	6
  4177     0260  0873               	movf	fputc@fp+1,w
  4178     0261  0087               	movwf	7
  4179     0262  3149               	addfsr 1,9
  4180     0263  0016               	moviw fsr1++
  4181     0264  0401               	iorwf	1,w
  4182     0265  1903               	btfsc	3,2
  4183     0266  2A68               	goto	u471
  4184     0267  2A69               	goto	u470
  4185     0268                     u471:
  4186     0268  2A89               	goto	l1565
  4187     0269                     u470:
  4188     0269                     l1563:
  4189     0269  0872               	movf	fputc@fp,w
  4190     026A  0086               	movwf	6
  4191     026B  0873               	movf	fputc@fp+1,w
  4192     026C  0087               	movwf	7
  4193     026D  3149               	addfsr 1,9
  4194     026E  3F40               	moviw [0]fsr1
  4195     026F  00F4               	movwf	??_fputc
  4196     0270  3F41               	moviw [1]fsr1
  4197     0271  00F5               	movwf	??_fputc+1
  4198     0272  0872               	movf	fputc@fp,w
  4199     0273  0086               	movwf	6
  4200     0274  0873               	movf	fputc@fp+1,w
  4201     0275  0087               	movwf	7
  4202     0276  3142               	addfsr 1,2
  4203     0277  3F40               	moviw [0]fsr1
  4204     0278  00F6               	movwf	??_fputc+2
  4205     0279  3F41               	moviw [1]fsr1
  4206     027A  00F7               	movwf	??_fputc+3
  4207     027B  0877               	movf	??_fputc+3,w
  4208     027C  3A80               	xorlw	128
  4209     027D  00F8               	movwf	??_fputc+4
  4210     027E  0875               	movf	??_fputc+1,w
  4211     027F  3A80               	xorlw	128
  4212     0280  0278               	subwf	??_fputc+4,w
  4213     0281  1D03               	skipz
  4214     0282  2A85               	goto	u485
  4215     0283  0874               	movf	??_fputc,w
  4216     0284  0276               	subwf	??_fputc+2,w
  4217     0285                     u485:
  4218     0285  1803               	skipnc
  4219     0286  2A88               	goto	u481
  4220     0287  2A89               	goto	u480
  4221     0288                     u481:
  4222     0288  2AA9               	goto	l1114
  4223     0289                     u480:
  4224     0289                     l1565:
  4225     0289  0872               	movf	fputc@fp,w
  4226     028A  0086               	movwf	6
  4227     028B  0873               	movf	fputc@fp+1,w
  4228     028C  0087               	movwf	7
  4229     028D  3142               	addfsr 1,2
  4230     028E  0872               	movf	fputc@fp,w
  4231     028F  0084               	movwf	4
  4232     0290  0873               	movf	fputc@fp+1,w
  4233     0291  0085               	movwf	5
  4234     0292  3F40               	moviw [0]fsr1
  4235     0293  0700               	addwf	0,w
  4236     0294  00F4               	movwf	??_fputc
  4237     0295  3101               	addfsr 0,1
  4238     0296  3F41               	moviw [1]fsr1
  4239     0297  3D00               	addwfc	0,w
  4240     0298  00F5               	movwf	??_fputc+1
  4241     0299  0874               	movf	??_fputc,w
  4242     029A  0086               	movwf	6
  4243     029B  0875               	movf	??_fputc+1,w
  4244     029C  0087               	movwf	7
  4245     029D  0870               	movf	fputc@c,w
  4246     029E  0081               	movwf	1
  4247     029F                     l1567:
  4248     029F  0872               	movf	fputc@fp,w
  4249     02A0  0086               	movwf	6
  4250     02A1  0873               	movf	fputc@fp+1,w
  4251     02A2  0087               	movwf	7
  4252     02A3  3142               	addfsr 1,2
  4253     02A4  3001               	movlw	1
  4254     02A5  0781               	addwf	1,f
  4255     02A6  3141               	addfsr 1,1
  4256     02A7  1803               	skipnc
  4257     02A8  0A81               	incf	1,f
  4258     02A9                     l1114:
  4259     02A9  0008               	return
  4260     02AA                     __end_of_fputc:
  4261                           
  4262                           	psect	text5
  4263     0491                     __ptext5:	
  4264 ;; *************** function _putch *****************
  4265 ;; Defined at:
  4266 ;;		line 7 in file "C:\Program Files\Microchip\xc8\v2.41\pic\sources\c99\common\putch.c"
  4267 ;; Parameters:    Size  Location     Type
  4268 ;;  c               1    wreg     unsigned char 
  4269 ;; Auto vars:     Size  Location     Type
  4270 ;;  c               1    0[COMMON] unsigned char 
  4271 ;; Return value:  Size  Location     Type
  4272 ;;                  1    wreg      void 
  4273 ;; Registers used:
  4274 ;;		wreg
  4275 ;; Tracked objects:
  4276 ;;		On entry : 0/0
  4277 ;;		On exit  : 0/0
  4278 ;;		Unchanged: 0/0
  4279 ;; Data sizes:     COMMON   BANK0   BANK1   BANK2   BANK3   BANK4   BANK5   BANK6   BANK7   BANK8   BANK9  BANK10  BANK1
      +1  BANK12  BANK13  BANK14  BANK15  BANK16  BANK17  BANK18  BANK19  BANK20  BANK21  BANK22  BANK23  BANK24  BANK25
  4280 ;;      Params:         0       0       0       0       0       0       0       0       0       0       0       0       
      +0       0       0       0       0       0       0       0       0       0       0       0       0       0       0
  4281 ;;      Locals:         0       0       0       0       0       0       0       0       0       0       0       0       
      +0       0       0       0       0       0       0       0       0       0       0       0       0       0       0
  4282 ;;      Temps:          0       0       0       0       0       0       0       0       0       0       0       0       
      +0       0       0       0       0       0       0       0       0       0       0       0       0       0       0
  4283 ;;      Totals:         0       0       0       0       0       0       0       0       0       0       0       0       
      +0       0       0       0       0       0       0       0       0       0       0       0       0       0       0
  4284 ;;Total ram usage:        0 bytes
  4285 ;; Hardware stack levels used: 1
  4286 ;; Hardware stack levels required when called: 2
  4287 ;; This function calls:
  4288 ;;		Nothing
  4289 ;; This function is called by:
  4290 ;;		_fputc
  4291 ;; This function uses a non-reentrant model
  4292 ;;
  4293                           
  4294     0491                     _putch:	
  4295                           ;psect for function _putch
  4296                           
  4297     0491                     l1125:	
  4298                           ;incstack = 0
  4299                           ; Regs used in _putch: [wreg]
  4300                           
  4301     0491  0008               	return
  4302     0492                     __end_of_putch:
  4303                           
  4304                           	psect	text6
  4305     02AA                     __ptext6:	
  4306 ;; *************** function _parseDHT11Byte *****************
  4307 ;; Defined at:
  4308 ;;		line 214 in file "main.c"
  4309 ;; Parameters:    Size  Location     Type
  4310 ;;  byteArray       1    wreg     PTR unsigned char 
  4311 ;;		 -> main@data(80), 
  4312 ;;  byte            1    0[COMMON] unsigned char 
  4313 ;; Auto vars:     Size  Location     Type
  4314 ;;  byteArray       1    9[COMMON] PTR unsigned char 
  4315 ;;		 -> main@data(80), 
  4316 ;;  _bit            1    5[COMMON] unsigned char 
  4317 ;;  high            1    4[COMMON] unsigned char 
  4318 ;;  low             1    3[COMMON] unsigned char 
  4319 ;;  i               1   10[COMMON] unsigned char 
  4320 ;;  result          1    8[COMMON] unsigned char 
  4321 ;;  startPos        1    7[COMMON] unsigned char 
  4322 ;;  idx             1    6[COMMON] unsigned char 
  4323 ;; Return value:  Size  Location     Type
  4324 ;;                  1    wreg      unsigned char 
  4325 ;; Registers used:
  4326 ;;		wreg, fsr1l, fsr1h, status,2, status,0
  4327 ;; Tracked objects:
  4328 ;;		On entry : 0/0
  4329 ;;		On exit  : 0/0
  4330 ;;		Unchanged: 0/0
  4331 ;; Data sizes:     COMMON   BANK0   BANK1   BANK2   BANK3   BANK4   BANK5   BANK6   BANK7   BANK8   BANK9  BANK10  BANK1
      +1  BANK12  BANK13  BANK14  BANK15  BANK16  BANK17  BANK18  BANK19  BANK20  BANK21  BANK22  BANK23  BANK24  BANK25
  4332 ;;      Params:         1       0       0       0       0       0       0       0       0       0       0       0       
      +0       0       0       0       0       0       0       0       0       0       0       0       0       0       0
  4333 ;;      Locals:         8       0       0       0       0       0       0       0       0       0       0       0       
      +0       0       0       0       0       0       0       0       0       0       0       0       0       0       0
  4334 ;;      Temps:          2       0       0       0       0       0       0       0       0       0       0       0       
      +0       0       0       0       0       0       0       0       0       0       0       0       0       0       0
  4335 ;;      Totals:        11       0       0       0       0       0       0       0       0       0       0       0       
      +0       0       0       0       0       0       0       0       0       0       0       0       0       0       0
  4336 ;;Total ram usage:       11 bytes
  4337 ;; Hardware stack levels used: 1
  4338 ;; Hardware stack levels required when called: 2
  4339 ;; This function calls:
  4340 ;;		Nothing
  4341 ;; This function is called by:
  4342 ;;		_main
  4343 ;; This function uses a non-reentrant model
  4344 ;;
  4345                           
  4346     02AA                     _parseDHT11Byte:	
  4347                           ;psect for function _parseDHT11Byte
  4348                           
  4349                           
  4350                           ;incstack = 0
  4351                           ; Regs used in _parseDHT11Byte: [wreg+fsr1l+fsr1h+status,2+status,0]
  4352                           ;parseDHT11Byte@byteArray stored from wreg
  4353     02AA  00F9               	movwf	parseDHT11Byte@byteArray
  4354     02AB                     l1777:
  4355                           
  4356                           ;main.c: 216:     uint8_t startPos = 16 * byte;
  4357     02AB  0870               	movf	parseDHT11Byte@byte,w
  4358     02AC  00F1               	movwf	??_parseDHT11Byte
  4359     02AD  3003               	movlw	3
  4360     02AE                     u635:
  4361     02AE  35F1               	lslf	??_parseDHT11Byte,f
  4362     02AF  3EFF               	addlw	-1
  4363     02B0  1D03               	skipz
  4364     02B1  2AAE               	goto	u635
  4365     02B2  3571               	lslf	??_parseDHT11Byte,w
  4366     02B3  00F7               	movwf	parseDHT11Byte@startPos
  4367     02B4                     l1779:
  4368                           
  4369                           ;main.c: 217:     uint8_t result = 0;
  4370     02B4  01F8               	clrf	parseDHT11Byte@result
  4371     02B5                     l1781:
  4372                           
  4373                           ;main.c: 218:     uint8_t idx = 0;
  4374     02B5  01F6               	clrf	parseDHT11Byte@idx
  4375     02B6                     l1783:
  4376                           
  4377                           ;main.c: 219:     for(uint8_t i = startPos; i < startPos + 16; i = i + 2) {
  4378     02B6  0877               	movf	parseDHT11Byte@startPos,w
  4379     02B7  00FA               	movwf	parseDHT11Byte@i
  4380     02B8  2AE4               	goto	l1791
  4381     02B9                     l1785:
  4382                           
  4383                           ;main.c: 221:         uint8_t low = byteArray[i];
  4384     02B9  087A               	movf	parseDHT11Byte@i,w
  4385     02BA  0779               	addwf	parseDHT11Byte@byteArray,w
  4386     02BB  00F1               	movwf	??_parseDHT11Byte
  4387     02BC  0871               	movf	??_parseDHT11Byte,w
  4388     02BD  0086               	movwf	6
  4389     02BE  0187               	clrf	7
  4390     02BF  0801               	movf	1,w
  4391     02C0  00F3               	movwf	parseDHT11Byte@low
  4392                           
  4393                           ;main.c: 222:         uint8_t high = byteArray[i + 1];
  4394     02C1  087A               	movf	parseDHT11Byte@i,w
  4395     02C2  0779               	addwf	parseDHT11Byte@byteArray,w
  4396     02C3  00F1               	movwf	??_parseDHT11Byte
  4397     02C4  0871               	movf	??_parseDHT11Byte,w
  4398     02C5  0086               	movwf	6
  4399     02C6  0187               	clrf	7
  4400     02C7  3F41               	moviw [1]fsr1
  4401     02C8  00F4               	movwf	parseDHT11Byte@high
  4402     02C9                     l1787:
  4403                           
  4404                           ;main.c: 223:         if (low < high) {
  4405     02C9  0874               	movf	parseDHT11Byte@high,w
  4406     02CA  0273               	subwf	parseDHT11Byte@low,w
  4407     02CB  1803               	skipnc
  4408     02CC  2ACE               	goto	u641
  4409     02CD  2ACF               	goto	u640
  4410     02CE                     u641:
  4411     02CE  2ADD               	goto	l417
  4412     02CF                     u640:
  4413     02CF                     l1789:
  4414                           
  4415                           ;main.c: 224:             uint8_t _bit = ((uint8_t)1) << (7 - idx);
  4416     02CF  3001               	movlw	1
  4417     02D0  00F1               	movwf	??_parseDHT11Byte
  4418     02D1  0876               	movf	parseDHT11Byte@idx,w
  4419     02D2  3C07               	sublw	7
  4420     02D3  0A89               	incf	9,f
  4421     02D4  2AD6               	goto	u654
  4422     02D5                     u655:
  4423     02D5  35F1               	lslf	??_parseDHT11Byte,f
  4424     02D6                     u654:
  4425     02D6  0B89               	decfsz	9,f
  4426     02D7  2AD5               	goto	u655
  4427     02D8  0871               	movf	??_parseDHT11Byte,w
  4428     02D9  00F5               	movwf	parseDHT11Byte@_bit
  4429                           
  4430                           ;main.c: 225:             result = result | _bit;
  4431     02DA  0878               	movf	parseDHT11Byte@result,w
  4432     02DB  0475               	iorwf	parseDHT11Byte@_bit,w
  4433     02DC  00F8               	movwf	parseDHT11Byte@result
  4434     02DD                     l417:	
  4435                           ;main.c: 226:         }
  4436                           
  4437                           
  4438                           ;main.c: 228:         idx++;
  4439     02DD  3001               	movlw	1
  4440     02DE  00F1               	movwf	??_parseDHT11Byte
  4441     02DF  0871               	movf	??_parseDHT11Byte,w
  4442     02E0  07F6               	addwf	parseDHT11Byte@idx,f
  4443                           
  4444                           ;main.c: 229:     }
  4445     02E1  087A               	movf	parseDHT11Byte@i,w
  4446     02E2  3E02               	addlw	2
  4447     02E3  00FA               	movwf	parseDHT11Byte@i
  4448     02E4                     l1791:
  4449     02E4  0877               	movf	parseDHT11Byte@startPos,w
  4450     02E5  3E10               	addlw	16
  4451     02E6  00F1               	movwf	??_parseDHT11Byte
  4452     02E7  3000               	movlw	0
  4453     02E8  1803               	skipnc
  4454     02E9  3001               	movlw	1
  4455     02EA  00F2               	movwf	??_parseDHT11Byte+1
  4456     02EB  0872               	movf	??_parseDHT11Byte+1,w
  4457     02EC  3A80               	xorlw	128
  4458     02ED  3C80               	sublw	128
  4459     02EE  1D03               	skipz
  4460     02EF  2AF2               	goto	u665
  4461     02F0  0871               	movf	??_parseDHT11Byte,w
  4462     02F1  027A               	subwf	parseDHT11Byte@i,w
  4463     02F2                     u665:
  4464     02F2  1C03               	skipc
  4465     02F3  2AF5               	goto	u661
  4466     02F4  2AF6               	goto	u660
  4467     02F5                     u661:
  4468     02F5  2AB9               	goto	l1785
  4469     02F6                     u660:
  4470     02F6                     l1793:
  4471                           
  4472                           ;main.c: 231:     return result;
  4473     02F6  0878               	movf	parseDHT11Byte@result,w
  4474     02F7                     l419:
  4475     02F7  0008               	return
  4476     02F8                     __end_of_parseDHT11Byte:
  4477                           
  4478                           	psect	text7
  4479     01DA                     __ptext7:	
  4480 ;; *************** function _free *****************
  4481 ;; Defined at:
  4482 ;;		line 67 in file "C:\Program Files\Microchip\xc8\v2.41\pic\sources\c99\common\lite_free.c"
  4483 ;; Parameters:    Size  Location     Type
  4484 ;;  ptr             1    wreg     PTR void 
  4485 ;;		 -> main@data(80), 
  4486 ;; Auto vars:     Size  Location     Type
  4487 ;;  ptr             1    5[COMMON] PTR void 
  4488 ;;		 -> main@data(80), 
  4489 ;;  c               1    6[COMMON] PTR struct chunk
  4490 ;;		 -> main@data(80), 
  4491 ;;  cptr            1    4[COMMON] PTR unsigned char 
  4492 ;;		 -> main@data(80), 
  4493 ;; Return value:  Size  Location     Type
  4494 ;;                  1    wreg      void 
  4495 ;; Registers used:
  4496 ;;		wreg, fsr0l, fsr0h, fsr1l, fsr1h, status,2, status,0
  4497 ;; Tracked objects:
  4498 ;;		On entry : 0/0
  4499 ;;		On exit  : 0/0
  4500 ;;		Unchanged: 0/0
  4501 ;; Data sizes:     COMMON   BANK0   BANK1   BANK2   BANK3   BANK4   BANK5   BANK6   BANK7   BANK8   BANK9  BANK10  BANK1
      +1  BANK12  BANK13  BANK14  BANK15  BANK16  BANK17  BANK18  BANK19  BANK20  BANK21  BANK22  BANK23  BANK24  BANK25
  4502 ;;      Params:         0       0       0       0       0       0       0       0       0       0       0       0       
      +0       0       0       0       0       0       0       0       0       0       0       0       0       0       0
  4503 ;;      Locals:         3       0       0       0       0       0       0       0       0       0       0       0       
      +0       0       0       0       0       0       0       0       0       0       0       0       0       0       0
  4504 ;;      Temps:          4       0       0       0       0       0       0       0       0       0       0       0       
      +0       0       0       0       0       0       0       0       0       0       0       0       0       0       0
  4505 ;;      Totals:         7       0       0       0       0       0       0       0       0       0       0       0       
      +0       0       0       0       0       0       0       0       0       0       0       0       0       0       0
  4506 ;;Total ram usage:        7 bytes
  4507 ;; Hardware stack levels used: 1
  4508 ;; Hardware stack levels required when called: 2
  4509 ;; This function calls:
  4510 ;;		Nothing
  4511 ;; This function is called by:
  4512 ;;		_main
  4513 ;; This function uses a non-reentrant model
  4514 ;;
  4515                           
  4516     01DA                     _free:	
  4517                           ;psect for function _free
  4518                           
  4519                           
  4520                           ;incstack = 0
  4521                           ; Regs used in _free: [wreg-fsr1h+status,2+status,0]
  4522                           ;free@ptr stored from wreg
  4523     01DA  00F5               	movwf	free@ptr
  4524     01DB                     l1803:
  4525     01DB  0875               	movf	free@ptr,w
  4526     01DC  00F4               	movwf	free@cptr
  4527     01DD                     l1805:
  4528     01DD  0875               	movf	free@ptr,w
  4529     01DE  1D03               	btfss	3,2
  4530     01DF  29E1               	goto	u671
  4531     01E0  29E2               	goto	u670
  4532     01E1                     u671:
  4533     01E1  29E3               	goto	l1809
  4534     01E2                     u670:
  4535     01E2  2A4C               	goto	l1050
  4536     01E3                     l1809:
  4537     01E3  0874               	movf	free@cptr,w
  4538     01E4  3EFE               	addlw	254
  4539     01E5  00F6               	movwf	free@c
  4540     01E6  0140               	movlb	0	; select bank0
  4541     01E7  0856               	movf	___freelist,w
  4542     01E8  1903               	btfsc	3,2
  4543     01E9  29EB               	goto	u681
  4544     01EA  29EC               	goto	u680
  4545     01EB                     u681:
  4546     01EB  2A46               	goto	l1831
  4547     01EC                     u680:
  4548     01EC                     l1811:
  4549     01EC  0876               	movf	free@c,w
  4550     01ED  0086               	movwf	6
  4551     01EE  0187               	clrf	7
  4552     01EF  0801               	movf	1,w
  4553     01F0  0774               	addwf	free@cptr,w
  4554     01F1  00F0               	movwf	??_free
  4555     01F2  0870               	movf	??_free,w
  4556     01F3  0656               	xorwf	___freelist,w
  4557     01F4  1D03               	skipz
  4558     01F5  29F7               	goto	u691
  4559     01F6  29F8               	goto	u690
  4560     01F7                     u691:
  4561     01F7  2A1B               	goto	l1823
  4562     01F8                     u690:
  4563     01F8                     l1813:
  4564     01F8  0876               	movf	free@c,w
  4565     01F9  3E02               	addlw	2
  4566     01FA  0086               	movwf	6
  4567     01FB  0187               	clrf	7
  4568     01FC  0856               	movf	___freelist,w
  4569     01FD  3E02               	addlw	2
  4570     01FE  0084               	movwf	4
  4571     01FF  0185               	clrf	5
  4572     0200  0800               	movf	0,w
  4573     0201  0081               	movwf	1
  4574     0202                     l1815:
  4575     0202  0856               	movf	___freelist,w
  4576     0203  0086               	movwf	6
  4577     0204  0187               	clrf	7
  4578     0205  3F40               	moviw [0]fsr1
  4579     0206  00F0               	movwf	??_free
  4580     0207  3F41               	moviw [1]fsr1
  4581     0208  00F1               	movwf	??_free+1
  4582     0209  0870               	movf	??_free,w
  4583     020A  3E02               	addlw	2
  4584     020B  00F2               	movwf	??_free+2
  4585     020C  3000               	movlw	0
  4586     020D  3D71               	addwfc	??_free+1,w
  4587     020E  00F3               	movwf	??_free+3
  4588     020F  0876               	movf	free@c,w
  4589     0210  0086               	movwf	6
  4590     0211  0187               	clrf	7
  4591     0212  0872               	movf	??_free+2,w
  4592     0213  0781               	addwf	1,f
  4593     0214  3141               	addfsr 1,1
  4594     0215  0873               	movf	??_free+3,w
  4595     0216  3D81               	addwfc	1,f
  4596     0217  317F               	addfsr 1,-1
  4597     0218                     l1817:
  4598     0218  0876               	movf	free@c,w
  4599     0219  00D6               	movwf	___freelist
  4600     021A  2A4C               	goto	l1050
  4601     021B                     l1823:
  4602     021B  0856               	movf	___freelist,w
  4603     021C  0086               	movwf	6
  4604     021D  0187               	clrf	7
  4605     021E  0801               	movf	1,w
  4606     021F  0756               	addwf	___freelist,w
  4607     0220  00F0               	movwf	??_free
  4608     0221  0870               	movf	??_free,w
  4609     0222  3E02               	addlw	2
  4610     0223  0676               	xorwf	free@c,w
  4611     0224  1D03               	skipz
  4612     0225  2A27               	goto	u701
  4613     0226  2A28               	goto	u700
  4614     0227                     u701:
  4615     0227  2A3F               	goto	l1829
  4616     0228                     u700:
  4617     0228                     l1825:
  4618     0228  0876               	movf	free@c,w
  4619     0229  0086               	movwf	6
  4620     022A  0187               	clrf	7
  4621     022B  3F40               	moviw [0]fsr1
  4622     022C  00F0               	movwf	??_free
  4623     022D  3F41               	moviw [1]fsr1
  4624     022E  00F1               	movwf	??_free+1
  4625     022F  0870               	movf	??_free,w
  4626     0230  3E02               	addlw	2
  4627     0231  00F2               	movwf	??_free+2
  4628     0232  3000               	movlw	0
  4629     0233  3D71               	addwfc	??_free+1,w
  4630     0234  00F3               	movwf	??_free+3
  4631     0235  0856               	movf	___freelist,w
  4632     0236  0086               	movwf	6
  4633     0237  0187               	clrf	7
  4634     0238  0872               	movf	??_free+2,w
  4635     0239  0781               	addwf	1,f
  4636     023A  3141               	addfsr 1,1
  4637     023B  0873               	movf	??_free+3,w
  4638     023C  3D81               	addwfc	1,f
  4639     023D  317F               	addfsr 1,-1
  4640     023E  2A4C               	goto	l1050
  4641     023F                     l1829:
  4642     023F  0876               	movf	free@c,w
  4643     0240  3E02               	addlw	2
  4644     0241  0086               	movwf	6
  4645     0242  0187               	clrf	7
  4646     0243  0856               	movf	___freelist,w
  4647     0244  0081               	movwf	1
  4648     0245  2A18               	goto	l1817
  4649     0246                     l1831:
  4650     0246  0876               	movf	free@c,w
  4651     0247  3E02               	addlw	2
  4652     0248  0086               	movwf	6
  4653     0249  0187               	clrf	7
  4654     024A  0181               	clrf	1
  4655     024B  2A18               	goto	l1817
  4656     024C                     l1050:
  4657     024C  0008               	return
  4658     024D                     __end_of_free:
  4659                           
  4660                           	psect	text8
  4661     03FD                     __ptext8:	
  4662 ;; *************** function _dht11ValidateResponse *****************
  4663 ;; Defined at:
  4664 ;;		line 204 in file "main.c"
  4665 ;; Parameters:    Size  Location     Type
  4666 ;;  byteArray       1    wreg     PTR unsigned char 
  4667 ;;		 -> main@data(80), 
  4668 ;; Auto vars:     Size  Location     Type
  4669 ;;  byteArray       1    1[COMMON] PTR unsigned char 
  4670 ;;		 -> main@data(80), 
  4671 ;;  i               1    2[COMMON] unsigned char 
  4672 ;; Return value:  Size  Location     Type
  4673 ;;                  1    wreg      unsigned char 
  4674 ;; Registers used:
  4675 ;;		wreg, fsr1l, fsr1h, status,2, status,0
  4676 ;; Tracked objects:
  4677 ;;		On entry : 0/0
  4678 ;;		On exit  : 0/0
  4679 ;;		Unchanged: 0/0
  4680 ;; Data sizes:     COMMON   BANK0   BANK1   BANK2   BANK3   BANK4   BANK5   BANK6   BANK7   BANK8   BANK9  BANK10  BANK1
      +1  BANK12  BANK13  BANK14  BANK15  BANK16  BANK17  BANK18  BANK19  BANK20  BANK21  BANK22  BANK23  BANK24  BANK25
  4681 ;;      Params:         0       0       0       0       0       0       0       0       0       0       0       0       
      +0       0       0       0       0       0       0       0       0       0       0       0       0       0       0
  4682 ;;      Locals:         2       0       0       0       0       0       0       0       0       0       0       0       
      +0       0       0       0       0       0       0       0       0       0       0       0       0       0       0
  4683 ;;      Temps:          1       0       0       0       0       0       0       0       0       0       0       0       
      +0       0       0       0       0       0       0       0       0       0       0       0       0       0       0
  4684 ;;      Totals:         3       0       0       0       0       0       0       0       0       0       0       0       
      +0       0       0       0       0       0       0       0       0       0       0       0       0       0       0
  4685 ;;Total ram usage:        3 bytes
  4686 ;; Hardware stack levels used: 1
  4687 ;; Hardware stack levels required when called: 2
  4688 ;; This function calls:
  4689 ;;		Nothing
  4690 ;; This function is called by:
  4691 ;;		_main
  4692 ;; This function uses a non-reentrant model
  4693 ;;
  4694                           
  4695     03FD                     _dht11ValidateResponse:	
  4696                           ;psect for function _dht11ValidateResponse
  4697                           
  4698                           
  4699                           ;incstack = 0
  4700                           ; Regs used in _dht11ValidateResponse: [wreg+fsr1l+fsr1h+status,2+status,0]
  4701                           ;dht11ValidateResponse@byteArray stored from wreg
  4702     03FD  00F1               	movwf	dht11ValidateResponse@byteArray
  4703     03FE                     l1757:
  4704                           
  4705                           ;main.c: 205:     for(uint8_t i = 0; i < 80; i++) {
  4706     03FE  01F2               	clrf	dht11ValidateResponse@i
  4707     03FF                     l1763:
  4708                           
  4709                           ;main.c: 206:         if(byteArray[i] == TIMEOUT) {
  4710     03FF  0872               	movf	dht11ValidateResponse@i,w
  4711     0400  0771               	addwf	dht11ValidateResponse@byteArray,w
  4712     0401  00F0               	movwf	??_dht11ValidateResponse
  4713     0402  0870               	movf	??_dht11ValidateResponse,w
  4714     0403  0086               	movwf	6
  4715     0404  0187               	clrf	7
  4716     0405  3064               	movlw	100
  4717     0406  0601               	xorwf	1,w
  4718     0407  1D03               	btfss	3,2
  4719     0408  2C0A               	goto	u611
  4720     0409  2C0B               	goto	u610
  4721     040A                     u611:
  4722     040A  2C0E               	goto	l1769
  4723     040B                     u610:
  4724     040B                     l1765:
  4725                           
  4726                           ;main.c: 207:             return DHT11_ERROR;
  4727     040B  0140               	movlb	0	; select bank0
  4728     040C  0858               	movf	_DHT11_ERROR,w
  4729     040D  2C1A               	goto	l412
  4730     040E                     l1769:
  4731                           
  4732                           ;main.c: 209:     }
  4733     040E  3001               	movlw	1
  4734     040F  00F0               	movwf	??_dht11ValidateResponse
  4735     0410  0870               	movf	??_dht11ValidateResponse,w
  4736     0411  07F2               	addwf	dht11ValidateResponse@i,f
  4737     0412                     l1771:
  4738     0412  3050               	movlw	80
  4739     0413  0272               	subwf	dht11ValidateResponse@i,w
  4740     0414  1C03               	skipc
  4741     0415  2C17               	goto	u621
  4742     0416  2C18               	goto	u620
  4743     0417                     u621:
  4744     0417  2BFF               	goto	l1763
  4745     0418                     u620:
  4746     0418                     l1773:
  4747                           
  4748                           ;main.c: 211:     return DHT11_OK;
  4749     0418  0140               	movlb	0	; select bank0
  4750     0419  0857               	movf	_DHT11_OK,w
  4751     041A                     l412:
  4752     041A  0008               	return
  4753     041B                     __end_of_dht11ValidateResponse:
  4754                           
  4755                           	psect	text9
  4756     03B2                     __ptext9:	
  4757 ;; *************** function _dht11Start *****************
  4758 ;; Defined at:
  4759 ;;		line 146 in file "main.c"
  4760 ;; Parameters:    Size  Location     Type
  4761 ;;		None
  4762 ;; Auto vars:     Size  Location     Type
  4763 ;;		None
  4764 ;; Return value:  Size  Location     Type
  4765 ;;                  1    wreg      void 
  4766 ;; Registers used:
  4767 ;;		wreg
  4768 ;; Tracked objects:
  4769 ;;		On entry : 0/0
  4770 ;;		On exit  : 0/0
  4771 ;;		Unchanged: 0/0
  4772 ;; Data sizes:     COMMON   BANK0   BANK1   BANK2   BANK3   BANK4   BANK5   BANK6   BANK7   BANK8   BANK9  BANK10  BANK1
      +1  BANK12  BANK13  BANK14  BANK15  BANK16  BANK17  BANK18  BANK19  BANK20  BANK21  BANK22  BANK23  BANK24  BANK25
  4773 ;;      Params:         0       0       0       0       0       0       0       0       0       0       0       0       
      +0       0       0       0       0       0       0       0       0       0       0       0       0       0       0
  4774 ;;      Locals:         0       0       0       0       0       0       0       0       0       0       0       0       
      +0       0       0       0       0       0       0       0       0       0       0       0       0       0       0
  4775 ;;      Temps:          2       0       0       0       0       0       0       0       0       0       0       0       
      +0       0       0       0       0       0       0       0       0       0       0       0       0       0       0
  4776 ;;      Totals:         2       0       0       0       0       0       0       0       0       0       0       0       
      +0       0       0       0       0       0       0       0       0       0       0       0       0       0       0
  4777 ;;Total ram usage:        2 bytes
  4778 ;; Hardware stack levels used: 1
  4779 ;; Hardware stack levels required when called: 2
  4780 ;; This function calls:
  4781 ;;		Nothing
  4782 ;; This function is called by:
  4783 ;;		_main
  4784 ;; This function uses a non-reentrant model
  4785 ;;
  4786                           
  4787     03B2                     _dht11Start:	
  4788                           ;psect for function _dht11Start
  4789                           
  4790     03B2                     l1707:	
  4791                           ;incstack = 0
  4792                           ; Regs used in _dht11Start: [wreg]
  4793                           
  4794                           
  4795                           ;main.c: 149:     (INTCONbits.GIE = 0);
  4796     03B2  138B               	bcf	11,7	;volatile
  4797     03B3                     l381:	
  4798                           ;main.c: 152:     do { TRISBbits.TRISB5 = 0; } while(0);
  4799                           
  4800     03B3  0140               	movlb	0	; select bank0
  4801     03B4  1293               	bcf	19,5	;volatile
  4802     03B5                     l383:	
  4803                           ;main.c: 153:     do { LATBbits.LATB5 = 1; } while(0);
  4804                           
  4805     03B5  1699               	bsf	25,5	;volatile
  4806     03B6                     l1709:
  4807                           
  4808                           ;main.c: 154:     _delay((unsigned long)((30)*(32000000/4000.0)));
  4809     03B6  3002               	movlw	2
  4810     03B7  00F1               	movwf	??_dht11Start+1
  4811     03B8  3038               	movlw	56
  4812     03B9  00F0               	movwf	??_dht11Start
  4813     03BA  30AD               	movlw	173
  4814     03BB                     u867:
  4815     03BB  0B89               	decfsz	9,f
  4816     03BC  2BBB               	goto	u867
  4817     03BD  0BF0               	decfsz	??_dht11Start,f
  4818     03BE  2BBB               	goto	u867
  4819     03BF  0BF1               	decfsz	??_dht11Start+1,f
  4820     03C0  2BBB               	goto	u867
  4821     03C1  0000               	nop
  4822     03C2                     l1711:
  4823     03C2  0140               	movlb	0	; select bank0
  4824     03C3  1299               	bcf	25,5	;volatile
  4825     03C4                     l386:
  4826                           
  4827                           ;main.c: 158:     _delay((unsigned long)((30)*(32000000/4000.0)));
  4828     03C4  3002               	movlw	2
  4829     03C5  00F1               	movwf	??_dht11Start+1
  4830     03C6  3038               	movlw	56
  4831     03C7  00F0               	movwf	??_dht11Start
  4832     03C8  30AD               	movlw	173
  4833     03C9                     u877:
  4834     03C9  0B89               	decfsz	9,f
  4835     03CA  2BC9               	goto	u877
  4836     03CB  0BF0               	decfsz	??_dht11Start,f
  4837     03CC  2BC9               	goto	u877
  4838     03CD  0BF1               	decfsz	??_dht11Start+1,f
  4839     03CE  2BC9               	goto	u877
  4840     03CF  0000               	nop
  4841     03D0                     l1713:
  4842     03D0  0140               	movlb	0	; select bank0
  4843     03D1  1699               	bsf	25,5	;volatile
  4844     03D2                     l388:
  4845                           
  4846                           ;main.c: 162:     _delay((unsigned long)((40)*(32000000/4000000.0)));
  4847     03D2  306A               	movlw	106
  4848     03D3                     u887:
  4849     03D3  0B89               	decfsz	9,f
  4850     03D4  2BD3               	goto	u887
  4851     03D5  3200               	nop2
  4852     03D6                     l1715:
  4853     03D6  0140               	movlb	0	; select bank0
  4854     03D7  1693               	bsf	19,5	;volatile
  4855     03D8                     l391:
  4856     03D8  0008               	return
  4857     03D9                     __end_of_dht11Start:
  4858                           
  4859                           	psect	text10
  4860     0345                     __ptext10:	
  4861 ;; *************** function _dht11CheckResponse *****************
  4862 ;; Defined at:
  4863 ;;		line 167 in file "main.c"
  4864 ;; Parameters:    Size  Location     Type
  4865 ;;		None
  4866 ;; Auto vars:     Size  Location     Type
  4867 ;;  tick            1    1[COMMON] unsigned char 
  4868 ;; Return value:  Size  Location     Type
  4869 ;;                  1    wreg      unsigned char 
  4870 ;; Registers used:
  4871 ;;		wreg, status,2, status,0
  4872 ;; Tracked objects:
  4873 ;;		On entry : 0/0
  4874 ;;		On exit  : 0/0
  4875 ;;		Unchanged: 0/0
  4876 ;; Data sizes:     COMMON   BANK0   BANK1   BANK2   BANK3   BANK4   BANK5   BANK6   BANK7   BANK8   BANK9  BANK10  BANK1
      +1  BANK12  BANK13  BANK14  BANK15  BANK16  BANK17  BANK18  BANK19  BANK20  BANK21  BANK22  BANK23  BANK24  BANK25
  4877 ;;      Params:         0       0       0       0       0       0       0       0       0       0       0       0       
      +0       0       0       0       0       0       0       0       0       0       0       0       0       0       0
  4878 ;;      Locals:         1       0       0       0       0       0       0       0       0       0       0       0       
      +0       0       0       0       0       0       0       0       0       0       0       0       0       0       0
  4879 ;;      Temps:          1       0       0       0       0       0       0       0       0       0       0       0       
      +0       0       0       0       0       0       0       0       0       0       0       0       0       0       0
  4880 ;;      Totals:         2       0       0       0       0       0       0       0       0       0       0       0       
      +0       0       0       0       0       0       0       0       0       0       0       0       0       0       0
  4881 ;;Total ram usage:        2 bytes
  4882 ;; Hardware stack levels used: 1
  4883 ;; Hardware stack levels required when called: 2
  4884 ;; This function calls:
  4885 ;;		Nothing
  4886 ;; This function is called by:
  4887 ;;		_main
  4888 ;; This function uses a non-reentrant model
  4889 ;;
  4890                           
  4891     0345                     _dht11CheckResponse:	
  4892                           ;psect for function _dht11CheckResponse
  4893                           
  4894     0345                     l1717:	
  4895                           ;incstack = 0
  4896                           ; Regs used in _dht11CheckResponse: [wreg+status,2+status,0]
  4897                           
  4898                           
  4899                           ;main.c: 171:     uint8_t tick = 0;
  4900     0345  01F1               	clrf	dht11CheckResponse@tick
  4901                           
  4902                           ;main.c: 172:     while(PORTBbits.RB5) {
  4903     0346  2B53               	goto	l1727
  4904     0347                     l1719:
  4905                           
  4906                           ;main.c: 173:         if(tick > TIMEOUT) {
  4907     0347  3065               	movlw	101
  4908     0348  0271               	subwf	dht11CheckResponse@tick,w
  4909     0349  1C03               	skipc
  4910     034A  2B4C               	goto	u551
  4911     034B  2B4D               	goto	u550
  4912     034C                     u551:
  4913     034C  2B4F               	goto	l1725
  4914     034D                     u550:
  4915     034D                     l1721:
  4916                           
  4917                           ;main.c: 174:             return DHT11_ERROR;
  4918     034D  0858               	movf	_DHT11_ERROR,w
  4919     034E  2B7B               	goto	l397
  4920     034F                     l1725:
  4921                           
  4922                           ;main.c: 177:         tick++;
  4923     034F  3001               	movlw	1
  4924     0350  00F0               	movwf	??_dht11CheckResponse
  4925     0351  0870               	movf	??_dht11CheckResponse,w
  4926     0352  07F1               	addwf	dht11CheckResponse@tick,f
  4927     0353                     l1727:
  4928                           
  4929                           ;main.c: 172:     while(PORTBbits.RB5) {
  4930     0353  0140               	movlb	0	; select bank0
  4931     0354  1A8D               	btfsc	13,5	;volatile
  4932     0355  2B57               	goto	u561
  4933     0356  2B58               	goto	u560
  4934     0357                     u561:
  4935     0357  2B47               	goto	l1719
  4936     0358                     u560:
  4937     0358                     l1729:
  4938                           
  4939                           ;main.c: 181:     tick = 0;
  4940     0358  01F1               	clrf	dht11CheckResponse@tick
  4941                           
  4942                           ;main.c: 182:     while(!PORTBbits.RB5) {
  4943     0359  2B65               	goto	l1739
  4944     035A                     l1731:
  4945                           
  4946                           ;main.c: 183:         if(tick > TIMEOUT) {
  4947     035A  3065               	movlw	101
  4948     035B  0271               	subwf	dht11CheckResponse@tick,w
  4949     035C  1C03               	skipc
  4950     035D  2B5F               	goto	u571
  4951     035E  2B60               	goto	u570
  4952     035F                     u571:
  4953     035F  2B61               	goto	l1737
  4954     0360                     u570:
  4955     0360  2B4D               	goto	l1721
  4956     0361                     l1737:
  4957                           
  4958                           ;main.c: 187:         tick++;
  4959     0361  3001               	movlw	1
  4960     0362  00F0               	movwf	??_dht11CheckResponse
  4961     0363  0870               	movf	??_dht11CheckResponse,w
  4962     0364  07F1               	addwf	dht11CheckResponse@tick,f
  4963     0365                     l1739:
  4964                           
  4965                           ;main.c: 182:     while(!PORTBbits.RB5) {
  4966     0365  1E8D               	btfss	13,5	;volatile
  4967     0366  2B68               	goto	u581
  4968     0367  2B69               	goto	u580
  4969     0368                     u581:
  4970     0368  2B5A               	goto	l1731
  4971     0369                     u580:
  4972     0369                     l1741:
  4973                           
  4974                           ;main.c: 191:     tick = 0;
  4975     0369  01F1               	clrf	dht11CheckResponse@tick
  4976                           
  4977                           ;main.c: 192:     while(PORTBbits.RB5) {
  4978     036A  2B76               	goto	l1751
  4979     036B                     l1743:
  4980                           
  4981                           ;main.c: 193:         if(tick > TIMEOUT) {
  4982     036B  3065               	movlw	101
  4983     036C  0271               	subwf	dht11CheckResponse@tick,w
  4984     036D  1C03               	skipc
  4985     036E  2B70               	goto	u591
  4986     036F  2B71               	goto	u590
  4987     0370                     u591:
  4988     0370  2B72               	goto	l1749
  4989     0371                     u590:
  4990     0371  2B4D               	goto	l1721
  4991     0372                     l1749:
  4992                           
  4993                           ;main.c: 197:         tick++;
  4994     0372  3001               	movlw	1
  4995     0373  00F0               	movwf	??_dht11CheckResponse
  4996     0374  0870               	movf	??_dht11CheckResponse,w
  4997     0375  07F1               	addwf	dht11CheckResponse@tick,f
  4998     0376                     l1751:
  4999                           
  5000                           ;main.c: 192:     while(PORTBbits.RB5) {
  5001     0376  1A8D               	btfsc	13,5	;volatile
  5002     0377  2B79               	goto	u601
  5003     0378  2B7A               	goto	u600
  5004     0379                     u601:
  5005     0379  2B6B               	goto	l1743
  5006     037A                     u600:
  5007     037A                     l1753:
  5008                           
  5009                           ;main.c: 201:     return DHT11_OK;
  5010     037A  0857               	movf	_DHT11_OK,w
  5011     037B                     l397:
  5012     037B  0008               	return
  5013     037C                     __end_of_dht11CheckResponse:
  5014                           
  5015                           	psect	text11
  5016     0448                     __ptext11:	
  5017 ;; *************** function _SYSTEM_Initialize *****************
  5018 ;; Defined at:
  5019 ;;		line 37 in file "mcc_generated_files/system/src/system.c"
  5020 ;; Parameters:    Size  Location     Type
  5021 ;;		None
  5022 ;; Auto vars:     Size  Location     Type
  5023 ;;		None
  5024 ;; Return value:  Size  Location     Type
  5025 ;;                  1    wreg      void 
  5026 ;; Registers used:
  5027 ;;		wreg, status,2, status,0, pclath, cstack
  5028 ;; Tracked objects:
  5029 ;;		On entry : 0/0
  5030 ;;		On exit  : 0/0
  5031 ;;		Unchanged: 0/0
  5032 ;; Data sizes:     COMMON   BANK0   BANK1   BANK2   BANK3   BANK4   BANK5   BANK6   BANK7   BANK8   BANK9  BANK10  BANK1
      +1  BANK12  BANK13  BANK14  BANK15  BANK16  BANK17  BANK18  BANK19  BANK20  BANK21  BANK22  BANK23  BANK24  BANK25
  5033 ;;      Params:         0       0       0       0       0       0       0       0       0       0       0       0       
      +0       0       0       0       0       0       0       0       0       0       0       0       0       0       0
  5034 ;;      Locals:         0       0       0       0       0       0       0       0       0       0       0       0       
      +0       0       0       0       0       0       0       0       0       0       0       0       0       0       0
  5035 ;;      Temps:          0       0       0       0       0       0       0       0       0       0       0       0       
      +0       0       0       0       0       0       0       0       0       0       0       0       0       0       0
  5036 ;;      Totals:         0       0       0       0       0       0       0       0       0       0       0       0       
      +0       0       0       0       0       0       0       0       0       0       0       0       0       0       0
  5037 ;;Total ram usage:        0 bytes
  5038 ;; Hardware stack levels used: 1
  5039 ;; Hardware stack levels required when called: 4
  5040 ;; This function calls:
  5041 ;;		_CLOCK_Initialize
  5042 ;;		_EUSART1_Initialize
  5043 ;;		_INTERRUPT_Initialize
  5044 ;;		_PIN_MANAGER_Initialize
  5045 ;; This function is called by:
  5046 ;;		_main
  5047 ;; This function uses a non-reentrant model
  5048 ;;
  5049                           
  5050     0448                     _SYSTEM_Initialize:	
  5051                           ;psect for function _SYSTEM_Initialize
  5052                           
  5053     0448                     l1705:	
  5054                           ;incstack = 0
  5055                           ; Regs used in _SYSTEM_Initialize: [wreg+status,2+status,0+pclath+cstack]
  5056                           
  5057                           
  5058                           ;mcc_generated_files/system/src/system.c: 39:     CLOCK_Initialize();
  5059     0448  3184  2478  3184   	fcall	_CLOCK_Initialize
  5060                           
  5061                           ;mcc_generated_files/system/src/system.c: 40:     PIN_MANAGER_Initialize();
  5062     044B  3182  22F8  3184   	fcall	_PIN_MANAGER_Initialize
  5063                           
  5064                           ;mcc_generated_files/system/src/system.c: 41:     EUSART1_Initialize();
  5065     044E  3184  241B  3184   	fcall	_EUSART1_Initialize
  5066                           
  5067                           ;mcc_generated_files/system/src/system.c: 42:     INTERRUPT_Initialize();
  5068     0451  3184  246D  3184   	fcall	_INTERRUPT_Initialize
  5069     0454                     l171:
  5070     0454  0008               	return
  5071     0455                     __end_of_SYSTEM_Initialize:
  5072                           
  5073                           	psect	text12
  5074     02F8                     __ptext12:	
  5075 ;; *************** function _PIN_MANAGER_Initialize *****************
  5076 ;; Defined at:
  5077 ;;		line 38 in file "mcc_generated_files/system/src/pins.c"
  5078 ;; Parameters:    Size  Location     Type
  5079 ;;		None
  5080 ;; Auto vars:     Size  Location     Type
  5081 ;;		None
  5082 ;; Return value:  Size  Location     Type
  5083 ;;                  1    wreg      void 
  5084 ;; Registers used:
  5085 ;;		wreg, status,2
  5086 ;; Tracked objects:
  5087 ;;		On entry : 0/0
  5088 ;;		On exit  : 0/0
  5089 ;;		Unchanged: 0/0
  5090 ;; Data sizes:     COMMON   BANK0   BANK1   BANK2   BANK3   BANK4   BANK5   BANK6   BANK7   BANK8   BANK9  BANK10  BANK1
      +1  BANK12  BANK13  BANK14  BANK15  BANK16  BANK17  BANK18  BANK19  BANK20  BANK21  BANK22  BANK23  BANK24  BANK25
  5091 ;;      Params:         0       0       0       0       0       0       0       0       0       0       0       0       
      +0       0       0       0       0       0       0       0       0       0       0       0       0       0       0
  5092 ;;      Locals:         0       0       0       0       0       0       0       0       0       0       0       0       
      +0       0       0       0       0       0       0       0       0       0       0       0       0       0       0
  5093 ;;      Temps:          0       0       0       0       0       0       0       0       0       0       0       0       
      +0       0       0       0       0       0       0       0       0       0       0       0       0       0       0
  5094 ;;      Totals:         0       0       0       0       0       0       0       0       0       0       0       0       
      +0       0       0       0       0       0       0       0       0       0       0       0       0       0       0
  5095 ;;Total ram usage:        0 bytes
  5096 ;; Hardware stack levels used: 1
  5097 ;; Hardware stack levels required when called: 2
  5098 ;; This function calls:
  5099 ;;		Nothing
  5100 ;; This function is called by:
  5101 ;;		_SYSTEM_Initialize
  5102 ;; This function uses a non-reentrant model
  5103 ;;
  5104                           
  5105     02F8                     _PIN_MANAGER_Initialize:	
  5106                           ;psect for function _PIN_MANAGER_Initialize
  5107                           
  5108     02F8                     l1639:	
  5109                           ;incstack = 0
  5110                           ; Regs used in _PIN_MANAGER_Initialize: [wreg+status,2]
  5111                           
  5112                           
  5113                           ;mcc_generated_files/system/src/pins.c: 43:     LATA = 0x0;
  5114     02F8  0140               	movlb	0	; select bank0
  5115     02F9  0198               	clrf	24	;volatile
  5116                           
  5117                           ;mcc_generated_files/system/src/pins.c: 44:     LATB = 0x0;
  5118     02FA  0199               	clrf	25	;volatile
  5119                           
  5120                           ;mcc_generated_files/system/src/pins.c: 45:     LATC = 0x0;
  5121     02FB  019A               	clrf	26	;volatile
  5122                           
  5123                           ;mcc_generated_files/system/src/pins.c: 46:     LATD = 0x0;
  5124     02FC  019B               	clrf	27	;volatile
  5125                           
  5126                           ;mcc_generated_files/system/src/pins.c: 47:     LATE = 0x0;
  5127     02FD  019C               	clrf	28	;volatile
  5128     02FE                     l1641:
  5129                           
  5130                           ;mcc_generated_files/system/src/pins.c: 52:     TRISA = 0xFF;
  5131     02FE  30FF               	movlw	255
  5132     02FF  0092               	movwf	18	;volatile
  5133     0300                     l1643:
  5134                           
  5135                           ;mcc_generated_files/system/src/pins.c: 53:     TRISB = 0xDD;
  5136     0300  30DD               	movlw	221
  5137     0301  0093               	movwf	19	;volatile
  5138     0302                     l1645:
  5139                           
  5140                           ;mcc_generated_files/system/src/pins.c: 54:     TRISC = 0xBF;
  5141     0302  30BF               	movlw	191
  5142     0303  0094               	movwf	20	;volatile
  5143     0304                     l1647:
  5144                           
  5145                           ;mcc_generated_files/system/src/pins.c: 55:     TRISD = 0xFF;
  5146     0304  30FF               	movlw	255
  5147     0305  0095               	movwf	21	;volatile
  5148     0306                     l1649:
  5149                           
  5150                           ;mcc_generated_files/system/src/pins.c: 56:     TRISE = 0xF;
  5151     0306  300F               	movlw	15
  5152     0307  0096               	movwf	22	;volatile
  5153     0308                     l1651:
  5154                           
  5155                           ;mcc_generated_files/system/src/pins.c: 61:     ANSELA = 0xFF;
  5156     0308  30FF               	movlw	255
  5157     0309  017D               	movlb	61	; select bank61
  5158     030A  008C               	movwf	12	;volatile
  5159     030B                     l1653:
  5160                           
  5161                           ;mcc_generated_files/system/src/pins.c: 62:     ANSELB = 0xDD;
  5162     030B  30DD               	movlw	221
  5163     030C  0096               	movwf	22	;volatile
  5164     030D                     l1655:
  5165                           
  5166                           ;mcc_generated_files/system/src/pins.c: 63:     ANSELC = 0x3F;
  5167     030D  303F               	movlw	63
  5168     030E  00A0               	movwf	32	;volatile
  5169     030F                     l1657:
  5170                           
  5171                           ;mcc_generated_files/system/src/pins.c: 64:     ANSELD = 0xFF;
  5172     030F  30FF               	movlw	255
  5173     0310  00AA               	movwf	42	;volatile
  5174     0311                     l1659:
  5175                           
  5176                           ;mcc_generated_files/system/src/pins.c: 65:     ANSELE = 0x7;
  5177     0311  3007               	movlw	7
  5178     0312  00B4               	movwf	52	;volatile
  5179                           
  5180                           ;mcc_generated_files/system/src/pins.c: 70:     WPUA = 0x0;
  5181     0313  018D               	clrf	13	;volatile
  5182                           
  5183                           ;mcc_generated_files/system/src/pins.c: 71:     WPUB = 0x0;
  5184     0314  0197               	clrf	23	;volatile
  5185                           
  5186                           ;mcc_generated_files/system/src/pins.c: 72:     WPUC = 0x0;
  5187     0315  01A1               	clrf	33	;volatile
  5188                           
  5189                           ;mcc_generated_files/system/src/pins.c: 73:     WPUD = 0x0;
  5190     0316  01AB               	clrf	43	;volatile
  5191                           
  5192                           ;mcc_generated_files/system/src/pins.c: 74:     WPUE = 0x0;
  5193     0317  01B5               	clrf	53	;volatile
  5194                           
  5195                           ;mcc_generated_files/system/src/pins.c: 80:     ODCONA = 0x0;
  5196     0318  018E               	clrf	14	;volatile
  5197                           
  5198                           ;mcc_generated_files/system/src/pins.c: 81:     ODCONB = 0x0;
  5199     0319  0198               	clrf	24	;volatile
  5200                           
  5201                           ;mcc_generated_files/system/src/pins.c: 82:     ODCONC = 0x0;
  5202     031A  01A2               	clrf	34	;volatile
  5203                           
  5204                           ;mcc_generated_files/system/src/pins.c: 83:     ODCOND = 0x0;
  5205     031B  01AC               	clrf	44	;volatile
  5206                           
  5207                           ;mcc_generated_files/system/src/pins.c: 84:     ODCONE = 0x0;
  5208     031C  01B6               	clrf	54	;volatile
  5209     031D                     l1661:
  5210                           
  5211                           ;mcc_generated_files/system/src/pins.c: 88:     SLRCONA = 0xFF;
  5212     031D  30FF               	movlw	255
  5213     031E  008F               	movwf	15	;volatile
  5214     031F                     l1663:
  5215                           
  5216                           ;mcc_generated_files/system/src/pins.c: 89:     SLRCONB = 0xFF;
  5217     031F  30FF               	movlw	255
  5218     0320  0099               	movwf	25	;volatile
  5219     0321                     l1665:
  5220                           
  5221                           ;mcc_generated_files/system/src/pins.c: 90:     SLRCONC = 0xFF;
  5222     0321  30FF               	movlw	255
  5223     0322  00A3               	movwf	35	;volatile
  5224     0323                     l1667:
  5225                           
  5226                           ;mcc_generated_files/system/src/pins.c: 91:     SLRCOND = 0xFF;
  5227     0323  30FF               	movlw	255
  5228     0324  00AD               	movwf	45	;volatile
  5229     0325                     l1669:
  5230                           
  5231                           ;mcc_generated_files/system/src/pins.c: 92:     SLRCONE = 0x7;
  5232     0325  3007               	movlw	7
  5233     0326  00B7               	movwf	55	;volatile
  5234     0327                     l1671:
  5235                           
  5236                           ;mcc_generated_files/system/src/pins.c: 96:     INLVLA = 0xFF;
  5237     0327  30FF               	movlw	255
  5238     0328  0090               	movwf	16	;volatile
  5239     0329                     l1673:
  5240                           
  5241                           ;mcc_generated_files/system/src/pins.c: 97:     INLVLB = 0xFF;
  5242     0329  30FF               	movlw	255
  5243     032A  009A               	movwf	26	;volatile
  5244     032B                     l1675:
  5245                           
  5246                           ;mcc_generated_files/system/src/pins.c: 98:     INLVLC = 0xFF;
  5247     032B  30FF               	movlw	255
  5248     032C  00A4               	movwf	36	;volatile
  5249     032D                     l1677:
  5250                           
  5251                           ;mcc_generated_files/system/src/pins.c: 99:     INLVLD = 0xFF;
  5252     032D  30FF               	movlw	255
  5253     032E  00AE               	movwf	46	;volatile
  5254     032F                     l1679:
  5255                           
  5256                           ;mcc_generated_files/system/src/pins.c: 100:     INLVLE = 0xF;
  5257     032F  300F               	movlw	15
  5258     0330  00B8               	movwf	56	;volatile
  5259     0331                     l1681:
  5260                           
  5261                           ;mcc_generated_files/system/src/pins.c: 105:     RX1PPS = 0x17;
  5262     0331  3017               	movlw	23
  5263     0332  017C               	movlb	60	; select bank60
  5264     0333  00C1               	movwf	65	;volatile
  5265     0334                     l1683:
  5266                           
  5267                           ;mcc_generated_files/system/src/pins.c: 106:     RC6PPS = 0x0E;
  5268     0334  300E               	movlw	14
  5269     0335  017B               	movlb	59	; select bank59
  5270     0336  00A2               	movwf	34	;volatile
  5271                           
  5272                           ;mcc_generated_files/system/src/pins.c: 115:     IOCAP = 0x0;
  5273     0337  017D               	movlb	61	; select bank61
  5274     0338  0191               	clrf	17	;volatile
  5275                           
  5276                           ;mcc_generated_files/system/src/pins.c: 116:     IOCAN = 0x0;
  5277     0339  0192               	clrf	18	;volatile
  5278                           
  5279                           ;mcc_generated_files/system/src/pins.c: 117:     IOCAF = 0x0;
  5280     033A  0193               	clrf	19	;volatile
  5281                           
  5282                           ;mcc_generated_files/system/src/pins.c: 118:     IOCBP = 0x0;
  5283     033B  019B               	clrf	27	;volatile
  5284                           
  5285                           ;mcc_generated_files/system/src/pins.c: 119:     IOCBN = 0x0;
  5286     033C  019C               	clrf	28	;volatile
  5287                           
  5288                           ;mcc_generated_files/system/src/pins.c: 120:     IOCBF = 0x0;
  5289     033D  019D               	clrf	29	;volatile
  5290                           
  5291                           ;mcc_generated_files/system/src/pins.c: 121:     IOCCP = 0x0;
  5292     033E  01A5               	clrf	37	;volatile
  5293                           
  5294                           ;mcc_generated_files/system/src/pins.c: 122:     IOCCN = 0x0;
  5295     033F  01A6               	clrf	38	;volatile
  5296                           
  5297                           ;mcc_generated_files/system/src/pins.c: 123:     IOCCF = 0x0;
  5298     0340  01A7               	clrf	39	;volatile
  5299                           
  5300                           ;mcc_generated_files/system/src/pins.c: 124:     IOCEP = 0x0;
  5301     0341  01B9               	clrf	57	;volatile
  5302                           
  5303                           ;mcc_generated_files/system/src/pins.c: 125:     IOCEN = 0x0;
  5304     0342  01BA               	clrf	58	;volatile
  5305                           
  5306                           ;mcc_generated_files/system/src/pins.c: 126:     IOCEF = 0x0;
  5307     0343  01BB               	clrf	59	;volatile
  5308     0344                     l157:
  5309     0344  0008               	return
  5310     0345                     __end_of_PIN_MANAGER_Initialize:
  5311                           
  5312                           	psect	text13
  5313     046D                     __ptext13:	
  5314 ;; *************** function _INTERRUPT_Initialize *****************
  5315 ;; Defined at:
  5316 ;;		line 40 in file "mcc_generated_files/system/src/interrupt.c"
  5317 ;; Parameters:    Size  Location     Type
  5318 ;;		None
  5319 ;; Auto vars:     Size  Location     Type
  5320 ;;		None
  5321 ;; Return value:  Size  Location     Type
  5322 ;;                  1    wreg      void 
  5323 ;; Registers used:
  5324 ;;		wreg, status,2, status,0, pclath, cstack
  5325 ;; Tracked objects:
  5326 ;;		On entry : 0/0
  5327 ;;		On exit  : 0/0
  5328 ;;		Unchanged: 0/0
  5329 ;; Data sizes:     COMMON   BANK0   BANK1   BANK2   BANK3   BANK4   BANK5   BANK6   BANK7   BANK8   BANK9  BANK10  BANK1
      +1  BANK12  BANK13  BANK14  BANK15  BANK16  BANK17  BANK18  BANK19  BANK20  BANK21  BANK22  BANK23  BANK24  BANK25
  5330 ;;      Params:         0       0       0       0       0       0       0       0       0       0       0       0       
      +0       0       0       0       0       0       0       0       0       0       0       0       0       0       0
  5331 ;;      Locals:         0       0       0       0       0       0       0       0       0       0       0       0       
      +0       0       0       0       0       0       0       0       0       0       0       0       0       0       0
  5332 ;;      Temps:          0       0       0       0       0       0       0       0       0       0       0       0       
      +0       0       0       0       0       0       0       0       0       0       0       0       0       0       0
  5333 ;;      Totals:         0       0       0       0       0       0       0       0       0       0       0       0       
      +0       0       0       0       0       0       0       0       0       0       0       0       0       0       0
  5334 ;;Total ram usage:        0 bytes
  5335 ;; Hardware stack levels used: 1
  5336 ;; Hardware stack levels required when called: 3
  5337 ;; This function calls:
  5338 ;;		_INT_SetInterruptHandler
  5339 ;; This function is called by:
  5340 ;;		_SYSTEM_Initialize
  5341 ;; This function uses a non-reentrant model
  5342 ;;
  5343                           
  5344     046D                     _INTERRUPT_Initialize:	
  5345                           ;psect for function _INTERRUPT_Initialize
  5346                           
  5347     046D                     l1635:	
  5348                           ;incstack = 0
  5349                           ; Regs used in _INTERRUPT_Initialize: [wreg+status,2+status,0+pclath+cstack]
  5350                           
  5351                           
  5352                           ;mcc_generated_files/system/src/interrupt.c: 44:     (PIR0bits.INTF = 0);
  5353     046D  0141               	movlb	1	; select bank1
  5354     046E  100C               	bcf	12,0	;volatile
  5355                           
  5356                           ;mcc_generated_files/system/src/interrupt.c: 45:     (INTCONbits.INTEDG = 1);
  5357     046F  140B               	bsf	11,0	;volatile
  5358     0470                     l1637:
  5359                           
  5360                           ;mcc_generated_files/system/src/interrupt.c: 47:     INT_SetInterruptHandler(INT_Default
      +                          InterruptHandler);
  5361     0470  3000               	movlw	0
  5362     0471  00F0               	movwf	INT_SetInterruptHandler@InterruptHandler
  5363     0472  3000               	movlw	0
  5364     0473  00F1               	movwf	INT_SetInterruptHandler@InterruptHandler+1
  5365     0474  3184  2488  3184   	fcall	_INT_SetInterruptHandler
  5366     0477                     l36:
  5367     0477  0008               	return
  5368     0478                     __end_of_INTERRUPT_Initialize:
  5369                           
  5370                           	psect	text14
  5371     0488                     __ptext14:	
  5372 ;; *************** function _INT_SetInterruptHandler *****************
  5373 ;; Defined at:
  5374 ;;		line 90 in file "mcc_generated_files/system/src/interrupt.c"
  5375 ;; Parameters:    Size  Location     Type
  5376 ;;  InterruptHan    2    0[COMMON] PTR FTN()void 
  5377 ;;		 -> INT_DefaultInterruptHandler(1), 
  5378 ;; Auto vars:     Size  Location     Type
  5379 ;;		None
  5380 ;; Return value:  Size  Location     Type
  5381 ;;                  1    wreg      void 
  5382 ;; Registers used:
  5383 ;;		wreg
  5384 ;; Tracked objects:
  5385 ;;		On entry : 0/0
  5386 ;;		On exit  : 0/0
  5387 ;;		Unchanged: 0/0
  5388 ;; Data sizes:     COMMON   BANK0   BANK1   BANK2   BANK3   BANK4   BANK5   BANK6   BANK7   BANK8   BANK9  BANK10  BANK1
      +1  BANK12  BANK13  BANK14  BANK15  BANK16  BANK17  BANK18  BANK19  BANK20  BANK21  BANK22  BANK23  BANK24  BANK25
  5389 ;;      Params:         2       0       0       0       0       0       0       0       0       0       0       0       
      +0       0       0       0       0       0       0       0       0       0       0       0       0       0       0
  5390 ;;      Locals:         0       0       0       0       0       0       0       0       0       0       0       0       
      +0       0       0       0       0       0       0       0       0       0       0       0       0       0       0
  5391 ;;      Temps:          0       0       0       0       0       0       0       0       0       0       0       0       
      +0       0       0       0       0       0       0       0       0       0       0       0       0       0       0
  5392 ;;      Totals:         2       0       0       0       0       0       0       0       0       0       0       0       
      +0       0       0       0       0       0       0       0       0       0       0       0       0       0       0
  5393 ;;Total ram usage:        2 bytes
  5394 ;; Hardware stack levels used: 1
  5395 ;; Hardware stack levels required when called: 2
  5396 ;; This function calls:
  5397 ;;		Nothing
  5398 ;; This function is called by:
  5399 ;;		_INTERRUPT_Initialize
  5400 ;; This function uses a non-reentrant model
  5401 ;;
  5402                           
  5403     0488                     _INT_SetInterruptHandler:	
  5404                           ;psect for function _INT_SetInterruptHandler
  5405                           
  5406     0488                     l1571:	
  5407                           ;incstack = 0
  5408                           ; Regs used in _INT_SetInterruptHandler: [wreg]
  5409                           
  5410                           
  5411                           ;mcc_generated_files/system/src/interrupt.c: 91:     INT_InterruptHandler = InterruptHan
      +                          dler;
  5412     0488  0871               	movf	INT_SetInterruptHandler@InterruptHandler+1,w
  5413     0489  0140               	movlb	0	; select bank0
  5414     048A  00D4               	movwf	_INT_InterruptHandler+1
  5415     048B  0870               	movf	INT_SetInterruptHandler@InterruptHandler,w
  5416     048C  00D3               	movwf	_INT_InterruptHandler
  5417     048D                     l53:
  5418     048D  0008               	return
  5419     048E                     __end_of_INT_SetInterruptHandler:
  5420                           
  5421                           	psect	text15
  5422     041B                     __ptext15:	
  5423 ;; *************** function _EUSART1_Initialize *****************
  5424 ;; Defined at:
  5425 ;;		line 94 in file "mcc_generated_files/uart/src/eusart1.c"
  5426 ;; Parameters:    Size  Location     Type
  5427 ;;		None
  5428 ;; Auto vars:     Size  Location     Type
  5429 ;;		None
  5430 ;; Return value:  Size  Location     Type
  5431 ;;                  1    wreg      void 
  5432 ;; Registers used:
  5433 ;;		wreg, status,2, status,0, pclath, cstack
  5434 ;; Tracked objects:
  5435 ;;		On entry : 0/0
  5436 ;;		On exit  : 0/0
  5437 ;;		Unchanged: 0/0
  5438 ;; Data sizes:     COMMON   BANK0   BANK1   BANK2   BANK3   BANK4   BANK5   BANK6   BANK7   BANK8   BANK9  BANK10  BANK1
      +1  BANK12  BANK13  BANK14  BANK15  BANK16  BANK17  BANK18  BANK19  BANK20  BANK21  BANK22  BANK23  BANK24  BANK25
  5439 ;;      Params:         0       0       0       0       0       0       0       0       0       0       0       0       
      +0       0       0       0       0       0       0       0       0       0       0       0       0       0       0
  5440 ;;      Locals:         0       0       0       0       0       0       0       0       0       0       0       0       
      +0       0       0       0       0       0       0       0       0       0       0       0       0       0       0
  5441 ;;      Temps:          0       0       0       0       0       0       0       0       0       0       0       0       
      +0       0       0       0       0       0       0       0       0       0       0       0       0       0       0
  5442 ;;      Totals:         0       0       0       0       0       0       0       0       0       0       0       0       
      +0       0       0       0       0       0       0       0       0       0       0       0       0       0       0
  5443 ;;Total ram usage:        0 bytes
  5444 ;; Hardware stack levels used: 1
  5445 ;; Hardware stack levels required when called: 3
  5446 ;; This function calls:
  5447 ;;		_EUSART1_FramingErrorCallbackRegister
  5448 ;;		_EUSART1_OverrunErrorCallbackRegister
  5449 ;; This function is called by:
  5450 ;;		_SYSTEM_Initialize
  5451 ;; This function uses a non-reentrant model
  5452 ;;
  5453                           
  5454     041B                     _EUSART1_Initialize:	
  5455                           ;psect for function _EUSART1_Initialize
  5456                           
  5457     041B                     l1685:	
  5458                           ;incstack = 0
  5459                           ; Regs used in _EUSART1_Initialize: [wreg+status,2+status,0+pclath+cstack]
  5460                           
  5461                           
  5462                           ;mcc_generated_files/uart/src/eusart1.c: 99:     BAUD1CON = 0x48;
  5463     041B  3048               	movlw	72
  5464     041C  014C               	movlb	12	; select bank12
  5465     041D  0092               	movwf	18	;volatile
  5466                           
  5467                           ;mcc_generated_files/uart/src/eusart1.c: 101:     RC1STA = 0x90;
  5468     041E  3090               	movlw	144
  5469     041F  0090               	movwf	16	;volatile
  5470                           
  5471                           ;mcc_generated_files/uart/src/eusart1.c: 103:     TX1STA = 0x26;
  5472     0420  3026               	movlw	38
  5473     0421  0091               	movwf	17	;volatile
  5474                           
  5475                           ;mcc_generated_files/uart/src/eusart1.c: 105:     SP1BRGL = 0x40;
  5476     0422  3040               	movlw	64
  5477     0423  008E               	movwf	14	;volatile
  5478                           
  5479                           ;mcc_generated_files/uart/src/eusart1.c: 107:     SP1BRGH = 0x3;
  5480     0424  3003               	movlw	3
  5481     0425  008F               	movwf	15	;volatile
  5482     0426                     l1687:
  5483                           
  5484                           ;mcc_generated_files/uart/src/eusart1.c: 109:     EUSART1_FramingErrorCallbackRegister(E
      +                          USART1_DefaultFramingErrorCallback);
  5485     0426  3000               	movlw	0
  5486     0427  00F0               	movwf	EUSART1_FramingErrorCallbackRegister@callbackHandler
  5487     0428  3000               	movlw	0
  5488     0429  00F1               	movwf	EUSART1_FramingErrorCallbackRegister@callbackHandler+1
  5489     042A  3184  2461  3184   	fcall	_EUSART1_FramingErrorCallbackRegister
  5490     042D                     l1689:
  5491                           
  5492                           ;mcc_generated_files/uart/src/eusart1.c: 110:     EUSART1_OverrunErrorCallbackRegister(E
      +                          USART1_DefaultOverrunErrorCallback);
  5493     042D  3000               	movlw	0
  5494     042E  00F0               	movwf	EUSART1_OverrunErrorCallbackRegister@callbackHandler
  5495     042F  3000               	movlw	0
  5496     0430  00F1               	movwf	EUSART1_OverrunErrorCallbackRegister@callbackHandler+1
  5497     0431  3184  2455  3184   	fcall	_EUSART1_OverrunErrorCallbackRegister
  5498     0434                     l1691:
  5499                           
  5500                           ;mcc_generated_files/uart/src/eusart1.c: 111:     eusart1RxLastError.status = 0;
  5501     0434  0140               	movlb	0	; select bank0
  5502     0435  01D1               	clrf	_eusart1RxLastError	;volatile
  5503     0436  01D2               	clrf	_eusart1RxLastError+1	;volatile
  5504     0437                     l236:
  5505     0437  0008               	return
  5506     0438                     __end_of_EUSART1_Initialize:
  5507                           
  5508                           	psect	text16
  5509     0455                     __ptext16:	
  5510 ;; *************** function _EUSART1_OverrunErrorCallbackRegister *****************
  5511 ;; Defined at:
  5512 ;;		line 260 in file "mcc_generated_files/uart/src/eusart1.c"
  5513 ;; Parameters:    Size  Location     Type
  5514 ;;  callbackHand    2    0[COMMON] PTR FTN()void 
  5515 ;;		 -> EUSART1_DefaultOverrunErrorCallback(1), 
  5516 ;; Auto vars:     Size  Location     Type
  5517 ;;		None
  5518 ;; Return value:  Size  Location     Type
  5519 ;;                  1    wreg      void 
  5520 ;; Registers used:
  5521 ;;		wreg, status,2, status,0
  5522 ;; Tracked objects:
  5523 ;;		On entry : 0/0
  5524 ;;		On exit  : 0/0
  5525 ;;		Unchanged: 0/0
  5526 ;; Data sizes:     COMMON   BANK0   BANK1   BANK2   BANK3   BANK4   BANK5   BANK6   BANK7   BANK8   BANK9  BANK10  BANK1
      +1  BANK12  BANK13  BANK14  BANK15  BANK16  BANK17  BANK18  BANK19  BANK20  BANK21  BANK22  BANK23  BANK24  BANK25
  5527 ;;      Params:         2       0       0       0       0       0       0       0       0       0       0       0       
      +0       0       0       0       0       0       0       0       0       0       0       0       0       0       0
  5528 ;;      Locals:         0       0       0       0       0       0       0       0       0       0       0       0       
      +0       0       0       0       0       0       0       0       0       0       0       0       0       0       0
  5529 ;;      Temps:          0       0       0       0       0       0       0       0       0       0       0       0       
      +0       0       0       0       0       0       0       0       0       0       0       0       0       0       0
  5530 ;;      Totals:         2       0       0       0       0       0       0       0       0       0       0       0       
      +0       0       0       0       0       0       0       0       0       0       0       0       0       0       0
  5531 ;;Total ram usage:        2 bytes
  5532 ;; Hardware stack levels used: 1
  5533 ;; Hardware stack levels required when called: 2
  5534 ;; This function calls:
  5535 ;;		Nothing
  5536 ;; This function is called by:
  5537 ;;		_EUSART1_Initialize
  5538 ;; This function uses a non-reentrant model
  5539 ;;
  5540                           
  5541     0455                     _EUSART1_OverrunErrorCallbackRegister:	
  5542                           ;psect for function _EUSART1_OverrunErrorCallbackRegister
  5543                           
  5544     0455                     l1577:	
  5545                           ;incstack = 0
  5546                           ; Regs used in _EUSART1_OverrunErrorCallbackRegister: [wreg+status,2+status,0]
  5547                           
  5548                           
  5549                           ;mcc_generated_files/uart/src/eusart1.c: 260: void EUSART1_OverrunErrorCallbackRegister(
      +                          void (* callbackHandler)(void));mcc_generated_files/uart/src/eusart1.c: 261: {;mcc_gener
      +                          ated_files/uart/src/eusart1.c: 262:     if(((void*)0) != callbackHandler)
  5550     0455  0870               	movf	EUSART1_OverrunErrorCallbackRegister@callbackHandler,w
  5551     0456  0471               	iorwf	EUSART1_OverrunErrorCallbackRegister@callbackHandler+1,w
  5552     0457  1903               	btfsc	3,2
  5553     0458  2C5A               	goto	u501
  5554     0459  2C5B               	goto	u500
  5555     045A                     u501:
  5556     045A  2C60               	goto	l315
  5557     045B                     u500:
  5558     045B                     l1579:
  5559                           
  5560                           ;mcc_generated_files/uart/src/eusart1.c: 263:     {;mcc_generated_files/uart/src/eusart1
      +                          .c: 264:         EUSART1_OverrunErrorHandler = callbackHandler;
  5561     045B  0871               	movf	EUSART1_OverrunErrorCallbackRegister@callbackHandler+1,w
  5562     045C  0140               	movlb	0	; select bank0
  5563     045D  00CE               	movwf	_EUSART1_OverrunErrorHandler+1
  5564     045E  0870               	movf	EUSART1_OverrunErrorCallbackRegister@callbackHandler,w
  5565     045F  00CD               	movwf	_EUSART1_OverrunErrorHandler
  5566     0460                     l315:
  5567     0460  0008               	return
  5568     0461                     __end_of_EUSART1_OverrunErrorCallbackRegister:
  5569                           
  5570                           	psect	text17
  5571     0461                     __ptext17:	
  5572 ;; *************** function _EUSART1_FramingErrorCallbackRegister *****************
  5573 ;; Defined at:
  5574 ;;		line 252 in file "mcc_generated_files/uart/src/eusart1.c"
  5575 ;; Parameters:    Size  Location     Type
  5576 ;;  callbackHand    2    0[COMMON] PTR FTN()void 
  5577 ;;		 -> EUSART1_DefaultFramingErrorCallback(1), 
  5578 ;; Auto vars:     Size  Location     Type
  5579 ;;		None
  5580 ;; Return value:  Size  Location     Type
  5581 ;;                  1    wreg      void 
  5582 ;; Registers used:
  5583 ;;		wreg, status,2, status,0
  5584 ;; Tracked objects:
  5585 ;;		On entry : 0/0
  5586 ;;		On exit  : 0/0
  5587 ;;		Unchanged: 0/0
  5588 ;; Data sizes:     COMMON   BANK0   BANK1   BANK2   BANK3   BANK4   BANK5   BANK6   BANK7   BANK8   BANK9  BANK10  BANK1
      +1  BANK12  BANK13  BANK14  BANK15  BANK16  BANK17  BANK18  BANK19  BANK20  BANK21  BANK22  BANK23  BANK24  BANK25
  5589 ;;      Params:         2       0       0       0       0       0       0       0       0       0       0       0       
      +0       0       0       0       0       0       0       0       0       0       0       0       0       0       0
  5590 ;;      Locals:         0       0       0       0       0       0       0       0       0       0       0       0       
      +0       0       0       0       0       0       0       0       0       0       0       0       0       0       0
  5591 ;;      Temps:          0       0       0       0       0       0       0       0       0       0       0       0       
      +0       0       0       0       0       0       0       0       0       0       0       0       0       0       0
  5592 ;;      Totals:         2       0       0       0       0       0       0       0       0       0       0       0       
      +0       0       0       0       0       0       0       0       0       0       0       0       0       0       0
  5593 ;;Total ram usage:        2 bytes
  5594 ;; Hardware stack levels used: 1
  5595 ;; Hardware stack levels required when called: 2
  5596 ;; This function calls:
  5597 ;;		Nothing
  5598 ;; This function is called by:
  5599 ;;		_EUSART1_Initialize
  5600 ;; This function uses a non-reentrant model
  5601 ;;
  5602                           
  5603     0461                     _EUSART1_FramingErrorCallbackRegister:	
  5604                           ;psect for function _EUSART1_FramingErrorCallbackRegister
  5605                           
  5606     0461                     l1573:	
  5607                           ;incstack = 0
  5608                           ; Regs used in _EUSART1_FramingErrorCallbackRegister: [wreg+status,2+status,0]
  5609                           
  5610                           
  5611                           ;mcc_generated_files/uart/src/eusart1.c: 252: void EUSART1_FramingErrorCallbackRegister(
      +                          void (* callbackHandler)(void));mcc_generated_files/uart/src/eusart1.c: 253: {;mcc_gener
      +                          ated_files/uart/src/eusart1.c: 254:     if(((void*)0) != callbackHandler)
  5612     0461  0870               	movf	EUSART1_FramingErrorCallbackRegister@callbackHandler,w
  5613     0462  0471               	iorwf	EUSART1_FramingErrorCallbackRegister@callbackHandler+1,w
  5614     0463  1903               	btfsc	3,2
  5615     0464  2C66               	goto	u491
  5616     0465  2C67               	goto	u490
  5617     0466                     u491:
  5618     0466  2C6C               	goto	l311
  5619     0467                     u490:
  5620     0467                     l1575:
  5621                           
  5622                           ;mcc_generated_files/uart/src/eusart1.c: 255:     {;mcc_generated_files/uart/src/eusart1
      +                          .c: 256:         EUSART1_FramingErrorHandler = callbackHandler;
  5623     0467  0871               	movf	EUSART1_FramingErrorCallbackRegister@callbackHandler+1,w
  5624     0468  0140               	movlb	0	; select bank0
  5625     0469  00D0               	movwf	_EUSART1_FramingErrorHandler+1
  5626     046A  0870               	movf	EUSART1_FramingErrorCallbackRegister@callbackHandler,w
  5627     046B  00CF               	movwf	_EUSART1_FramingErrorHandler
  5628     046C                     l311:
  5629     046C  0008               	return
  5630     046D                     __end_of_EUSART1_FramingErrorCallbackRegister:
  5631                           
  5632                           	psect	text18
  5633     0478                     __ptext18:	
  5634 ;; *************** function _CLOCK_Initialize *****************
  5635 ;; Defined at:
  5636 ;;		line 37 in file "mcc_generated_files/system/src/clock.c"
  5637 ;; Parameters:    Size  Location     Type
  5638 ;;		None
  5639 ;; Auto vars:     Size  Location     Type
  5640 ;;		None
  5641 ;; Return value:  Size  Location     Type
  5642 ;;                  1    wreg      void 
  5643 ;; Registers used:
  5644 ;;		wreg, status,2
  5645 ;; Tracked objects:
  5646 ;;		On entry : 0/0
  5647 ;;		On exit  : 0/0
  5648 ;;		Unchanged: 0/0
  5649 ;; Data sizes:     COMMON   BANK0   BANK1   BANK2   BANK3   BANK4   BANK5   BANK6   BANK7   BANK8   BANK9  BANK10  BANK1
      +1  BANK12  BANK13  BANK14  BANK15  BANK16  BANK17  BANK18  BANK19  BANK20  BANK21  BANK22  BANK23  BANK24  BANK25
  5650 ;;      Params:         0       0       0       0       0       0       0       0       0       0       0       0       
      +0       0       0       0       0       0       0       0       0       0       0       0       0       0       0
  5651 ;;      Locals:         0       0       0       0       0       0       0       0       0       0       0       0       
      +0       0       0       0       0       0       0       0       0       0       0       0       0       0       0
  5652 ;;      Temps:          0       0       0       0       0       0       0       0       0       0       0       0       
      +0       0       0       0       0       0       0       0       0       0       0       0       0       0       0
  5653 ;;      Totals:         0       0       0       0       0       0       0       0       0       0       0       0       
      +0       0       0       0       0       0       0       0       0       0       0       0       0       0       0
  5654 ;;Total ram usage:        0 bytes
  5655 ;; Hardware stack levels used: 1
  5656 ;; Hardware stack levels required when called: 2
  5657 ;; This function calls:
  5658 ;;		Nothing
  5659 ;; This function is called by:
  5660 ;;		_SYSTEM_Initialize
  5661 ;; This function uses a non-reentrant model
  5662 ;;
  5663                           
  5664     0478                     _CLOCK_Initialize:	
  5665                           ;psect for function _CLOCK_Initialize
  5666                           
  5667     0478                     l1625:	
  5668                           ;incstack = 0
  5669                           ; Regs used in _CLOCK_Initialize: [wreg+status,2]
  5670                           
  5671                           
  5672                           ;mcc_generated_files/system/src/clock.c: 41:     OSCCON2 = 0x0;
  5673     0478  0144               	movlb	4	; select bank4
  5674     0479  018E               	clrf	14	;volatile
  5675                           
  5676                           ;mcc_generated_files/system/src/clock.c: 43:     OSCCON3 = 0x0;
  5677     047A  018F               	clrf	15	;volatile
  5678                           
  5679                           ;mcc_generated_files/system/src/clock.c: 45:     OSCEN = 0x0;
  5680     047B  0191               	clrf	17	;volatile
  5681     047C                     l1627:
  5682                           
  5683                           ;mcc_generated_files/system/src/clock.c: 47:     OSCFRQ = 0x5;
  5684     047C  3005               	movlw	5
  5685     047D  0093               	movwf	19	;volatile
  5686     047E                     l1629:
  5687                           
  5688                           ;mcc_generated_files/system/src/clock.c: 49:     OSCSTAT = 0x0;
  5689     047E  0190               	clrf	16	;volatile
  5690     047F                     l1631:
  5691                           
  5692                           ;mcc_generated_files/system/src/clock.c: 51:     OSCTUNE = 0x0;
  5693     047F  0192               	clrf	18	;volatile
  5694     0480                     l1633:
  5695                           
  5696                           ;mcc_generated_files/system/src/clock.c: 53:     ACTCON = 0x0;
  5697     0480  0194               	clrf	20	;volatile
  5698     0481                     l17:
  5699     0481  0008               	return
  5700     0482                     __end_of_CLOCK_Initialize:
  5701                           
  5702                           	psect	intentry
  5703     0004                     __pintentry:	
  5704 ;; *************** function _INTERRUPT_InterruptManager *****************
  5705 ;; Defined at:
  5706 ;;		line 59 in file "mcc_generated_files/system/src/interrupt.c"
  5707 ;; Parameters:    Size  Location     Type
  5708 ;;		None
  5709 ;; Auto vars:     Size  Location     Type
  5710 ;;		None
  5711 ;; Return value:  Size  Location     Type
  5712 ;;                  1    wreg      void 
  5713 ;; Registers used:
  5714 ;;		status,2, status,0, pclath, cstack
  5715 ;; Tracked objects:
  5716 ;;		On entry : 0/0
  5717 ;;		On exit  : 0/0
  5718 ;;		Unchanged: 0/0
  5719 ;; Data sizes:     COMMON   BANK0   BANK1   BANK2   BANK3   BANK4   BANK5   BANK6   BANK7   BANK8   BANK9  BANK10  BANK1
      +1  BANK12  BANK13  BANK14  BANK15  BANK16  BANK17  BANK18  BANK19  BANK20  BANK21  BANK22  BANK23  BANK24  BANK25
  5720 ;;      Params:         0       0       0       0       0       0       0       0       0       0       0       0       
      +0       0       0       0       0       0       0       0       0       0       0       0       0       0       0
  5721 ;;      Locals:         0       0       0       0       0       0       0       0       0       0       0       0       
      +0       0       0       0       0       0       0       0       0       0       0       0       0       0       0
  5722 ;;      Temps:          0       0       0       0       0       0       0       0       0       0       0       0       
      +0       0       0       0       0       0       0       0       0       0       0       0       0       0       0
  5723 ;;      Totals:         0       0       0       0       0       0       0       0       0       0       0       0       
      +0       0       0       0       0       0       0       0       0       0       0       0       0       0       0
  5724 ;;Total ram usage:        0 bytes
  5725 ;; Hardware stack levels used: 1
  5726 ;; Hardware stack levels required when called: 1
  5727 ;; This function calls:
  5728 ;;		_PIN_MANAGER_IOC
  5729 ;; This function is called by:
  5730 ;;		Interrupt level 1
  5731 ;; This function uses a non-reentrant model
  5732 ;;
  5733                           
  5734     0004                     _INTERRUPT_InterruptManager:
  5735                           
  5736                           ;incstack = 0
  5737     0004  147E               	bsf	int$flags,0	;set compiler interrupt flag (level 1)
  5738                           
  5739                           ; Regs used in _INTERRUPT_InterruptManager: [status,2+status,0+pclath+cstack]
  5740     0005  3180               	pagesel	$
  5741     0006                     i1l1413:
  5742                           
  5743                           ;mcc_generated_files/system/src/interrupt.c: 62:     if(PIE0bits.IOCIE == 1 && PIR0bits.
      +                          IOCIF == 1)
  5744     0006  0141               	movlb	1	; select bank1
  5745     0007  1E16               	btfss	22,4	;volatile
  5746     0008  280A               	goto	u27_21
  5747     0009  280B               	goto	u27_20
  5748     000A                     u27_21:
  5749     000A  2812               	goto	i1l43
  5750     000B                     u27_20:
  5751     000B                     i1l1415:
  5752     000B  1E0C               	btfss	12,4	;volatile
  5753     000C  280E               	goto	u28_21
  5754     000D  280F               	goto	u28_20
  5755     000E                     u28_21:
  5756     000E  2812               	goto	i1l43
  5757     000F                     u28_20:
  5758     000F                     i1l1417:
  5759                           
  5760                           ;mcc_generated_files/system/src/interrupt.c: 63:     {;mcc_generated_files/system/src/in
      +                          terrupt.c: 64:         PIN_MANAGER_IOC();
  5761     000F  3184  2492  3180   	fcall	_PIN_MANAGER_IOC
  5762     0012                     i1l43:	
  5763                           ;mcc_generated_files/system/src/interrupt.c: 65:     }
  5764                           
  5765     0012  107E               	bcf	int$flags,0	;clear compiler interrupt flag (level 1)
  5766     0013  0009               	retfie
  5767     0014                     __end_of_INTERRUPT_InterruptManager:
  5768                           
  5769                           	psect	text20
  5770     0492                     __ptext20:	
  5771 ;; *************** function _PIN_MANAGER_IOC *****************
  5772 ;; Defined at:
  5773 ;;		line 131 in file "mcc_generated_files/system/src/pins.c"
  5774 ;; Parameters:    Size  Location     Type
  5775 ;;		None
  5776 ;; Auto vars:     Size  Location     Type
  5777 ;;		None
  5778 ;; Return value:  Size  Location     Type
  5779 ;;                  1    wreg      void 
  5780 ;; Registers used:
  5781 ;;		None
  5782 ;; Tracked objects:
  5783 ;;		On entry : 0/0
  5784 ;;		On exit  : 0/0
  5785 ;;		Unchanged: 0/0
  5786 ;; Data sizes:     COMMON   BANK0   BANK1   BANK2   BANK3   BANK4   BANK5   BANK6   BANK7   BANK8   BANK9  BANK10  BANK1
      +1  BANK12  BANK13  BANK14  BANK15  BANK16  BANK17  BANK18  BANK19  BANK20  BANK21  BANK22  BANK23  BANK24  BANK25
  5787 ;;      Params:         0       0       0       0       0       0       0       0       0       0       0       0       
      +0       0       0       0       0       0       0       0       0       0       0       0       0       0       0
  5788 ;;      Locals:         0       0       0       0       0       0       0       0       0       0       0       0       
      +0       0       0       0       0       0       0       0       0       0       0       0       0       0       0
  5789 ;;      Temps:          0       0       0       0       0       0       0       0       0       0       0       0       
      +0       0       0       0       0       0       0       0       0       0       0       0       0       0       0
  5790 ;;      Totals:         0       0       0       0       0       0       0       0       0       0       0       0       
      +0       0       0       0       0       0       0       0       0       0       0       0       0       0       0
  5791 ;;Total ram usage:        0 bytes
  5792 ;; Hardware stack levels used: 1
  5793 ;; This function calls:
  5794 ;;		Nothing
  5795 ;; This function is called by:
  5796 ;;		_INTERRUPT_InterruptManager
  5797 ;; This function uses a non-reentrant model
  5798 ;;
  5799                           
  5800     0492                     _PIN_MANAGER_IOC:	
  5801                           ;psect for function _PIN_MANAGER_IOC
  5802                           
  5803     0492                     i1l160:	
  5804                           ;incstack = 0
  5805                           ; Regs used in _PIN_MANAGER_IOC: []
  5806                           
  5807     0492  0008               	return
  5808     0493                     __end_of_PIN_MANAGER_IOC:
  5809     007E                     btemp	set	126	;btemp
  5810     007E                     int$flags	set	126
  5811     007E                     wtemp0	set	126
  5812                           
  5813                           	psect	config
  5814                           
  5815                           ;Config register CONFIG1 @ 0x8007
  5816                           ;	External Oscillator Selection bits
  5817                           ;	FEXTOSC = ECL, EC (external clock) below 16 MHz
  5818                           ;	Reset Oscillator Selection bits
  5819                           ;	RSTOSC = HFINTOSC_32MHz, HFINTOSC (32 MHz)
  5820                           ;	Clock Out Enable bit
  5821                           ;	CLKOUTEN = OFF, CLKOUT function is disabled; i/o or oscillator function on OSC2
  5822                           ;	VDD Range Analog Calibration Selection bit
  5823                           ;	VDDAR = HI, Internal analog systems are calibrated for operation between VDD = 2.3 - 5
      +                          .5V
  5824     8007                     	org	32775
  5825     8007  3F8D               	dw	16269
  5826                           
  5827                           ;Config register CONFIG2 @ 0x8008
  5828                           ;	Master Clear Enable bit
  5829                           ;	MCLRE = EXTMCLR, If LVP = 0, MCLR pin is MCLR; If LVP = 1, RA3 pin function is MCLR
  5830                           ;	Power-up Timer Selection bits
  5831                           ;	PWRTS = PWRT_OFF, PWRT is disabled
  5832                           ;	WDT Operating Mode bits
  5833                           ;	WDTE = OFF, WDT disabled; SEN is ignored
  5834                           ;	Brown-out Reset Enable bits
  5835                           ;	BOREN = ON, Brown-out Reset enabled, SBOREN bit is ignored
  5836                           ;	DAC Buffer Automatic Range Select Enable bit
  5837                           ;	DACAUTOEN = OFF, DAC Buffer reference range is determined by the REFRNG bit
  5838                           ;	Brown-out Reset Voltage Selection bit
  5839                           ;	BORV = LO, Brown-out Reset Voltage (VBOR) set to 1.9V
  5840                           ;	ZCD Disable bit
  5841                           ;	ZCD = OFF, ZCD module is disabled; ZCD can be enabled by setting the ZCDSEN bit of ZCD
      +                          CON
  5842                           ;	PPSLOCKED One-Way Set Enable bit
  5843                           ;	PPS1WAY = ON, The PPSLOCKED bit can be cleared and set only once after an unlocking se
      +                          quence is executed; once PPSLOCKED is set, all future changes to PPS registers are preve
      +                          nted
  5844                           ;	Stack Overflow/Underflow Reset Enable bit
  5845                           ;	STVREN = ON, Stack Overflow or Underflow will cause a reset
  5846     8008                     	org	32776
  5847     8008  3FE7               	dw	16359
  5848                           
  5849                           ;Config register CONFIG4 @ 0x800A
  5850                           ;	Boot Block Size Selection bits
  5851                           ;	BBSIZE = BB512, 512 words boot block size
  5852                           ;	Boot Block Enable bit
  5853                           ;	BBEN = OFF, Boot Block disabled
  5854                           ;	Storage Area Flash (SAF) Enable bit
  5855                           ;	SAFEN = OFF, SAF disabled
  5856                           ;	Application Block Write Protection bit
  5857                           ;	WRTAPP = OFF, Application Block is NOT write protected
  5858                           ;	Boot Block Write Protection bit
  5859                           ;	WRTB = OFF, Boot Block is NOT write protected
  5860                           ;	Configuration Register Write Protection bit
  5861                           ;	WRTC = OFF, Configuration Register is NOT write protected
  5862                           ;	Data EEPROM Write-Protection bit
  5863                           ;	WRTD = OFF, Data EEPROM is NOT write-protected
  5864                           ;	Storage Area Flash (SAF) Write Protection bit
  5865                           ;	WRTSAF = OFF, SAF is NOT write protected
  5866                           ;	Low Voltage Programming Enable bit
  5867                           ;	LVP = ON, Low Voltage programming enabled. MCLR/Vpp pin function is MCLR. MCLRE Config
      +                          uration bit is ignored
  5868     800A                     	org	32778
  5869     800A  3FFF               	dw	16383
  5870                           
  5871                           ;Config register CONFIG5 @ 0x800B
  5872                           ;	Program Flash Memory Code Protection bit
  5873                           ;	CP = OFF, Program Flash Memory code protection is disabled
  5874                           ;	Data EEPROM Code Protection bit
  5875                           ;	CPD = OFF, EEPROM code protection is disabled
  5876     800B                     	org	32779
  5877     800B  3FFF               	dw	16383

Data Sizes:
    Strings     6
    Constant    48
    Data        3
    BSS         48
    Persistent  32
    Stack       0

Auto Spaces:
    Space          Size  Autos    Used
    COMMON           14     14      14
    BANK0            80     39      58
    BANK1            80     80      80
    BANK2            80      0      32
    BANK3            80      0       0
    BANK4            80      0       0
    BANK5            80      0       0
    BANK6            80      0       0
    BANK7            80      0       0
    BANK8            80      0       0
    BANK9            80      0       0
    BANK10           80      0       0
    BANK11           80      0       0
    BANK12           80      0       0
    BANK13           80      0       0
    BANK14           80      0       0
    BANK15           80      0       0
    BANK16           80      0       0
    BANK17           80      0       0
    BANK18           80      0       0
    BANK19           80      0       0
    BANK20           80      0       0
    BANK21           80      0       0
    BANK22           80      0       0
    BANK23           80      0       0
    BANK24           80      0       0
    BANK25           32      0       0

Pointer List with Targets:

    main@data.......next	PTR struct chunk size(2) Largest target is 0

    main@data.....next	PTR struct chunk size(2) Largest target is 0

    main@data...next	PTR struct chunk size(2) Largest target is 0

    S213$20$0	PTR FTN()void  size(2) Largest target is 1
		 -> EUSART1_DefaultFramingErrorCallback(), 

    S213$21$0	PTR FTN()void  size(2) Largest target is 1
		 -> EUSART1_DefaultOverrunErrorCallback(), 

    ?___simple_search_fl...next	PTR struct chunk size(2) Largest target is 0

    S1299$source	PTR const unsigned char  size(2) Largest target is 0

    fputc@fp...source	PTR const unsigned char  size(2) Largest target is 0

    S1299$buffer	PTR unsigned char  size(2) Largest target is 0

    fputc@fp...buffer	PTR unsigned char  size(2) Largest target is 0

    fputc@fp	PTR struct _IO_FILE size(2) Largest target is 0
		 -> NULL(NULL[0]), 

    vfprintf@ap	PTR PTR void  size(1) Largest target is 1
		 -> printf@ap(BANK0[1]), 

    vfprintf@fp	PTR struct _IO_FILE size(2) Largest target is 0
		 -> NULL(NULL[0]), 

    vfprintf@fmt	PTR const unsigned char  size(2) Largest target is 16384
		 -> ROM(CODE[16384]), STR_1(CODE[6]), 

    vfprintf@cfmt	PTR unsigned char  size(2) Largest target is 16384
		 -> ROM(CODE[16384]), STR_1(CODE[6]), 

    vfpfcnvrt@fp	PTR struct _IO_FILE size(2) Largest target is 0
		 -> NULL(NULL[0]), 

    vfpfcnvrt@ap	PTR PTR void  size(1) Largest target is 1
		 -> printf@ap(BANK0[1]), 

    vfpfcnvrt@cp	PTR unsigned char  size(2) Largest target is 16384
		 -> ROM(CODE[16384]), STR_1(CODE[6]), 

    vfpfcnvrt@fmt	PTR PTR unsigned char  size(1) Largest target is 2
		 -> vfprintf@cfmt(BANK0[2]), 

    S1338$vp	PTR void  size(2) Largest target is 0

    convarg.vp	PTR void  size(2) Largest target is 0

    printf@fmt	PTR const unsigned char  size(2) Largest target is 16384
		 -> ROM(CODE[16384]), STR_1(CODE[6]), 

    printf@ap	PTR void [1] size(1) Largest target is 2
		 -> ?_printf(BANK0[2]), 

    free@c.....next	PTR struct chunk size(2) Largest target is 0

    free@c...next	PTR struct chunk size(2) Largest target is 0

    free@c	PTR struct chunk size(1) Largest target is 80
		 -> main@data(BANK1[80]), 

    free@ptr	PTR void  size(1) Largest target is 80
		 -> main@data(BANK1[80]), 

    free@cptr	PTR unsigned char  size(1) Largest target is 80
		 -> main@data(BANK1[80]), 

    __simple_search_fl@best_last.....next	PTR struct chunk size(2) Largest target is 0

    __simple_search_fl@split.....next	PTR struct chunk size(2) Largest target is 0

    __simple_search_fl@split...next	PTR struct chunk size(2) Largest target is 0

    __simple_search_fl@next...next	PTR struct chunk size(2) Largest target is 0

    __simple_search_fl@best_last...next	PTR struct chunk size(2) Largest target is 0

    __simple_search_fl@best...next	PTR struct chunk size(2) Largest target is 0

    sp____simple_search_fl...next	PTR struct chunk size(2) Largest target is 0

    __freelist...next	PTR struct chunk size(2) Largest target is 0

    __simple_search_fl@last.....next	PTR struct chunk size(2) Largest target is 0

    __simple_search_fl@last...next	PTR struct chunk size(2) Largest target is 0

    S1220$next	PTR struct chunk size(2) Largest target is 0

    __simple_search_fl@c...next	PTR struct chunk size(2) Largest target is 0

    sp____simple_search_fl	PTR void  size(1) Largest target is 80
		 -> main@data..(BANK0[2]), main@data(BANK1[80]), NULL(NULL[0]), 

    __freelist	PTR struct chunk size(1) Largest target is 80
		 -> main@data..(BANK0[2]), main@data(BANK1[80]), NULL(NULL[0]), 

    parseDHT11Byte@byteArray	PTR unsigned char  size(1) Largest target is 80
		 -> main@data(BANK1[80]), 

    dht11ValidateResponse@byteArray	PTR unsigned char  size(1) Largest target is 80
		 -> main@data(BANK1[80]), 

    EUSART1_OverrunErrorCallbackRegister@callbackHandler	PTR FTN()void  size(2) Largest target is 1
		 -> EUSART1_DefaultOverrunErrorCallback(), 

    EUSART1_FramingErrorCallbackRegister@callbackHandler	PTR FTN()void  size(2) Largest target is 1
		 -> EUSART1_DefaultFramingErrorCallback(), 

    EUSART1_FramingErrorHandler	PTR FTN()void  size(2) Largest target is 1
		 -> EUSART1_DefaultFramingErrorCallback(), NULL(), 

    EUSART1_OverrunErrorHandler	PTR FTN()void  size(2) Largest target is 1
		 -> EUSART1_DefaultOverrunErrorCallback(), NULL(), 

    S213$EventCallbackRegister	PTR FTN(PTR FTN()void ,)void  size(2) Largest target is 1
		 -> NULL(), 

    UART1.EventCallbackRegister	PTR FTN(PTR FTN()void ,)void  size(2) Largest target is 1
		 -> NULL(), 

    S213$ParityErrorCallbackRegister	PTR FTN(PTR FTN()void ,)void  size(2) Largest target is 1
		 -> NULL(), 

    UART1.ParityErrorCallbackRegister	PTR FTN(PTR FTN()void ,)void  size(2) Largest target is 1
		 -> NULL(), 

    S213$OverrunErrorCallbackRegister	PTR FTN(PTR FTN()void ,)void  size(2) Largest target is 1
		 -> EUSART1_OverrunErrorCallbackRegister(), 

    UART1.OverrunErrorCallbackRegister	PTR FTN(PTR FTN()void ,)void  size(2) Largest target is 1
		 -> EUSART1_OverrunErrorCallbackRegister(), 

    S213$FramingErrorCallbackRegister	PTR FTN(PTR FTN()void ,)void  size(2) Largest target is 1
		 -> EUSART1_FramingErrorCallbackRegister(), 

    UART1.FramingErrorCallbackRegister	PTR FTN(PTR FTN()void ,)void  size(2) Largest target is 1
		 -> EUSART1_FramingErrorCallbackRegister(), 

    S213$TxCollisionCallbackRegister	PTR FTN(PTR FTN()void ,)void  size(2) Largest target is 1
		 -> NULL(), 

    UART1.TxCollisionCallbackRegister	PTR FTN(PTR FTN()void ,)void  size(2) Largest target is 1
		 -> NULL(), 

    S213$RxCompleteCallbackRegister	PTR FTN(PTR FTN()void ,)void  size(2) Largest target is 1
		 -> NULL(), 

    UART1.RxCompleteCallbackRegister	PTR FTN(PTR FTN()void ,)void  size(2) Largest target is 1
		 -> NULL(), 

    S213$TxCompleteCallbackRegister	PTR FTN(PTR FTN()void ,)void  size(2) Largest target is 1
		 -> NULL(), 

    UART1.TxCompleteCallbackRegister	PTR FTN(PTR FTN()void ,)void  size(2) Largest target is 1
		 -> NULL(), 

    S213$ErrorGet	PTR FTN()unsigned int  size(2) Largest target is 2
		 -> EUSART1_ErrorGet(), 

    UART1.ErrorGet	PTR FTN()unsigned int  size(2) Largest target is 2
		 -> EUSART1_ErrorGet(), 

    S213$BaudRateGet	PTR FTN()unsigned long  size(2) Largest target is 1
		 -> NULL(), 

    UART1.BaudRateGet	PTR FTN()unsigned long  size(2) Largest target is 1
		 -> NULL(), 

    S213$BaudRateSet	PTR FTN(unsigned long ,)void  size(2) Largest target is 1
		 -> NULL(), 

    UART1.BaudRateSet	PTR FTN(unsigned long ,)void  size(2) Largest target is 1
		 -> NULL(), 

    S213$BRGCountGet	PTR FTN()unsigned long  size(2) Largest target is 1
		 -> NULL(), 

    UART1.BRGCountGet	PTR FTN()unsigned long  size(2) Largest target is 1
		 -> NULL(), 

    S213$BRGCountSet	PTR FTN(unsigned long ,)void  size(2) Largest target is 1
		 -> NULL(), 

    UART1.BRGCountSet	PTR FTN(unsigned long ,)void  size(2) Largest target is 1
		 -> NULL(), 

    S213$AutoBaudEventEnableGet	PTR FTN()_Bool  size(2) Largest target is 1
		 -> NULL(), 

    UART1.AutoBaudEventEnableGet	PTR FTN()_Bool  size(2) Largest target is 1
		 -> NULL(), 

    S213$AutoBaudQuery	PTR FTN()_Bool  size(2) Largest target is 1
		 -> EUSART1_AutoBaudQuery(), 

    UART1.AutoBaudQuery	PTR FTN()_Bool  size(2) Largest target is 1
		 -> EUSART1_AutoBaudQuery(), 

    S213$AutoBaudSet	PTR FTN(_Bool ,)void  size(2) Largest target is 1
		 -> EUSART1_AutoBaudSet(), 

    UART1.AutoBaudSet	PTR FTN(_Bool ,)void  size(2) Largest target is 1
		 -> EUSART1_AutoBaudSet(), 

    S213$TransmitDisable	PTR FTN()void  size(2) Largest target is 1
		 -> EUSART1_TransmitDisable(), 

    UART1.TransmitDisable	PTR FTN()void  size(2) Largest target is 1
		 -> EUSART1_TransmitDisable(), 

    S213$TransmitEnable	PTR FTN()void  size(2) Largest target is 1
		 -> EUSART1_TransmitEnable(), 

    UART1.TransmitEnable	PTR FTN()void  size(2) Largest target is 1
		 -> EUSART1_TransmitEnable(), 

    S213$IsTxDone	PTR FTN()_Bool  size(2) Largest target is 1
		 -> EUSART1_IsTxDone(), 

    UART1.IsTxDone	PTR FTN()_Bool  size(2) Largest target is 1
		 -> EUSART1_IsTxDone(), 

    S213$IsTxReady	PTR FTN()_Bool  size(2) Largest target is 1
		 -> EUSART1_IsTxReady(), 

    UART1.IsTxReady	PTR FTN()_Bool  size(2) Largest target is 1
		 -> EUSART1_IsTxReady(), 

    S213$IsRxReady	PTR FTN()_Bool  size(2) Largest target is 1
		 -> EUSART1_IsRxReady(), 

    UART1.IsRxReady	PTR FTN()_Bool  size(2) Largest target is 1
		 -> EUSART1_IsRxReady(), 

    S213$Write	PTR FTN(unsigned char ,)void  size(2) Largest target is 1
		 -> EUSART1_Write(), 

    UART1.Write	PTR FTN(unsigned char ,)void  size(2) Largest target is 1
		 -> EUSART1_Write(), 

    S213$Read	PTR FTN()unsigned char  size(2) Largest target is 1
		 -> EUSART1_Read(), 

    UART1.Read	PTR FTN()unsigned char  size(2) Largest target is 1
		 -> EUSART1_Read(), 

    S213$Deinitialize	PTR FTN()void  size(2) Largest target is 1
		 -> EUSART1_Deinitialize(), 

    UART1.Deinitialize	PTR FTN()void  size(2) Largest target is 1
		 -> EUSART1_Deinitialize(), 

    S213$Initialize	PTR FTN()void  size(2) Largest target is 1
		 -> EUSART1_Initialize(), 

    UART1.Initialize	PTR FTN()void  size(2) Largest target is 1
		 -> EUSART1_Initialize(), 

    INT_SetInterruptHandler@InterruptHandler	PTR FTN()void  size(2) Largest target is 1
		 -> INT_DefaultInterruptHandler(), 

    INT_InterruptHandler	PTR FTN()void  size(2) Largest target is 1
		 -> NULL(), INT_DefaultInterruptHandler(), 


Critical Paths under _main in COMMON

    _printf->_vfprintf
    _vfprintf->_vfpfcnvrt
    _vfpfcnvrt->_fputc
    _INTERRUPT_Initialize->_INT_SetInterruptHandler
    _EUSART1_Initialize->_EUSART1_FramingErrorCallbackRegister
    _EUSART1_Initialize->_EUSART1_OverrunErrorCallbackRegister

Critical Paths under _INTERRUPT_InterruptManager in COMMON

    None.

Critical Paths under _main in BANK0

    _main->_printf
    _printf->_vfprintf
    _vfprintf->_vfpfcnvrt

Critical Paths under _INTERRUPT_InterruptManager in BANK0

    None.

Critical Paths under _main in BANK1

    None.

Critical Paths under _INTERRUPT_InterruptManager in BANK1

    None.

Critical Paths under _main in BANK2

    None.

Critical Paths under _INTERRUPT_InterruptManager in BANK2

    None.

Critical Paths under _main in BANK3

    None.

Critical Paths under _INTERRUPT_InterruptManager in BANK3

    None.

Critical Paths under _main in BANK4

    None.

Critical Paths under _INTERRUPT_InterruptManager in BANK4

    None.

Critical Paths under _main in BANK5

    None.

Critical Paths under _INTERRUPT_InterruptManager in BANK5

    None.

Critical Paths under _main in BANK6

    None.

Critical Paths under _INTERRUPT_InterruptManager in BANK6

    None.

Critical Paths under _main in BANK7

    None.

Critical Paths under _INTERRUPT_InterruptManager in BANK7

    None.

Critical Paths under _main in BANK8

    None.

Critical Paths under _INTERRUPT_InterruptManager in BANK8

    None.

Critical Paths under _main in BANK9

    None.

Critical Paths under _INTERRUPT_InterruptManager in BANK9

    None.

Critical Paths under _main in BANK10

    None.

Critical Paths under _INTERRUPT_InterruptManager in BANK10

    None.

Critical Paths under _main in BANK11

    None.

Critical Paths under _INTERRUPT_InterruptManager in BANK11

    None.

Critical Paths under _main in BANK12

    None.

Critical Paths under _INTERRUPT_InterruptManager in BANK12

    None.

Critical Paths under _main in BANK13

    None.

Critical Paths under _INTERRUPT_InterruptManager in BANK13

    None.

Critical Paths under _main in BANK14

    None.

Critical Paths under _INTERRUPT_InterruptManager in BANK14

    None.

Critical Paths under _main in BANK15

    None.

Critical Paths under _INTERRUPT_InterruptManager in BANK15

    None.

Critical Paths under _main in BANK16

    None.

Critical Paths under _INTERRUPT_InterruptManager in BANK16

    None.

Critical Paths under _main in BANK17

    None.

Critical Paths under _INTERRUPT_InterruptManager in BANK17

    None.

Critical Paths under _main in BANK18

    None.

Critical Paths under _INTERRUPT_InterruptManager in BANK18

    None.

Critical Paths under _main in BANK19

    None.

Critical Paths under _INTERRUPT_InterruptManager in BANK19

    None.

Critical Paths under _main in BANK20

    None.

Critical Paths under _INTERRUPT_InterruptManager in BANK20

    None.

Critical Paths under _main in BANK21

    None.

Critical Paths under _INTERRUPT_InterruptManager in BANK21

    None.

Critical Paths under _main in BANK22

    None.

Critical Paths under _INTERRUPT_InterruptManager in BANK22

    None.

Critical Paths under _main in BANK23

    None.

Critical Paths under _INTERRUPT_InterruptManager in BANK23

    None.

Critical Paths under _main in BANK24

    None.

Critical Paths under _INTERRUPT_InterruptManager in BANK24

    None.

Critical Paths under _main in BANK25

    None.

Critical Paths under _INTERRUPT_InterruptManager in BANK25

    None.

Call Graph Tables:

 ---------------------------------------------------------------------------------
 (Depth) Function   	        Calls       Base Space   Used Autos Params    Refs
 ---------------------------------------------------------------------------------
 (0) _main                                               103   103      0    4867
                                             16 BANK0     23    23      0
                                              0 BANK1     80    80      0
                  _SYSTEM_Initialize
                 _dht11CheckResponse
                         _dht11Start
              _dht11ValidateResponse
                               _free
                     _parseDHT11Byte
                             _printf
 ---------------------------------------------------------------------------------
 (1) _printf                                               5     3      2    2353
                                             13 BANK0      3     1      2
                           _vfprintf
 ---------------------------------------------------------------------------------
 (2) _vfprintf                                             8     3      5    1854
                                             13 COMMON     1     1      0
                                              6 BANK0      7     2      5
                          _vfpfcnvrt
 ---------------------------------------------------------------------------------
 (3) _vfpfcnvrt                                           19    15      4    1462
                                              9 COMMON     4     0      4
                                              0 BANK0      6     6      0
                              _fputc
 ---------------------------------------------------------------------------------
 (4) _fputc                                                9     5      4     886
                                              0 COMMON     9     5      4
                              _putch
 ---------------------------------------------------------------------------------
 (5) _putch                                                1     1      0       0
 ---------------------------------------------------------------------------------
 (1) _parseDHT11Byte                                      11    10      1     965
                                              0 COMMON    11    10      1
 ---------------------------------------------------------------------------------
 (1) _free                                                 7     7      0     324
                                              0 COMMON     7     7      0
 ---------------------------------------------------------------------------------
 (1) _dht11ValidateResponse                                3     3      0     126
                                              0 COMMON     3     3      0
 ---------------------------------------------------------------------------------
 (1) _dht11Start                                           2     2      0       0
                                              0 COMMON     2     2      0
 ---------------------------------------------------------------------------------
 (1) _dht11CheckResponse                                   2     2      0      72
                                              0 COMMON     2     2      0
 ---------------------------------------------------------------------------------
 (1) _SYSTEM_Initialize                                    0     0      0     377
                   _CLOCK_Initialize
                 _EUSART1_Initialize
               _INTERRUPT_Initialize
             _PIN_MANAGER_Initialize
 ---------------------------------------------------------------------------------
 (2) _PIN_MANAGER_Initialize                               0     0      0       0
 ---------------------------------------------------------------------------------
 (2) _INTERRUPT_Initialize                                 0     0      0     111
            _INT_SetInterruptHandler
 ---------------------------------------------------------------------------------
 (3) _INT_SetInterruptHandler                              2     0      2     111
                                              0 COMMON     2     0      2
 ---------------------------------------------------------------------------------
 (2) _EUSART1_Initialize                                   0     0      0     266
_EUSART1_FramingErrorCallbackRegiste
_EUSART1_OverrunErrorCallbackRegiste
 ---------------------------------------------------------------------------------
 (3) _EUSART1_OverrunErrorCallbackRegister                 2     0      2     133
                                              0 COMMON     2     0      2
 ---------------------------------------------------------------------------------
 (3) _EUSART1_FramingErrorCallbackRegister                 2     0      2     133
                                              0 COMMON     2     0      2
 ---------------------------------------------------------------------------------
 (2) _CLOCK_Initialize                                     0     0      0       0
 ---------------------------------------------------------------------------------
 Estimated maximum stack depth 5
 ---------------------------------------------------------------------------------
 (Depth) Function   	        Calls       Base Space   Used Autos Params    Refs
 ---------------------------------------------------------------------------------
 (6) _INTERRUPT_InterruptManager                           0     0      0       0
                    _PIN_MANAGER_IOC
 ---------------------------------------------------------------------------------
 (7) _PIN_MANAGER_IOC                                      0     0      0       0
 ---------------------------------------------------------------------------------
 Estimated maximum stack depth 7
 ---------------------------------------------------------------------------------

 Call Graph Graphs:

 _main (ROOT)
   _SYSTEM_Initialize
     _CLOCK_Initialize
     _EUSART1_Initialize
       _EUSART1_FramingErrorCallbackRegister
       _EUSART1_OverrunErrorCallbackRegister
     _INTERRUPT_Initialize
       _INT_SetInterruptHandler
     _PIN_MANAGER_Initialize
   _dht11CheckResponse
   _dht11Start
   _dht11ValidateResponse
   _free
   _parseDHT11Byte
   _printf
     _vfprintf
       _vfpfcnvrt
         _fputc
           _putch

 _INTERRUPT_InterruptManager (ROOT)
   _PIN_MANAGER_IOC

 Address spaces:
Name               Size   Autos  Total    Cost      Usage
BIGRAM             7F0      0       0       0        0.0%
EEDATA             100      0       0       0        0.0%
NULL                 0      0       0       0        0.0%
CODE                 0      0       0       0        0.0%
BITCOMMON            E      0       0       1        0.0%
BITSFR0              0      0       0       1        0.0%
SFR0                 0      0       0       1        0.0%
COMMON               E      E       E       2      100.0%
BITSFR1              0      0       0       2        0.0%
SFR1                 0      0       0       2        0.0%
BITSFR2              0      0       0       3        0.0%
SFR2                 0      0       0       3        0.0%
STACK                0      0       0       3        0.0%
BITBANK0            50      0       0       4        0.0%
BITSFR3              0      0       0       4        0.0%
SFR3                 0      0       0       4        0.0%
BANK0               50     27      3A       5       72.5%
BITSFR4              0      0       0       5        0.0%
SFR4                 0      0       0       5        0.0%
BITSFR5              0      0       0       6        0.0%
SFR5                 0      0       0       6        0.0%
ABS                  0      0      B8       6        0.0%
BITBANK1            50      0       0       7        0.0%
BITSFR6              0      0       0       7        0.0%
SFR6                 0      0       0       7        0.0%
BANK1               50     50      50       8      100.0%
BITSFR7              0      0       0       8        0.0%
SFR7                 0      0       0       8        0.0%
BITBANK2            50      0       0       9        0.0%
BITSFR8              0      0       0       9        0.0%
SFR8                 0      0       0       9        0.0%
BANK2               50      0      20      10       40.0%
BITSFR9              0      0       0      10        0.0%
SFR9                 0      0       0      10        0.0%
BITBANK3            50      0       0      11        0.0%
BITSFR10             0      0       0      11        0.0%
SFR10                0      0       0      11        0.0%
BANK3               50      0       0      12        0.0%
BITSFR11             0      0       0      12        0.0%
SFR11                0      0       0      12        0.0%
BITBANK4            50      0       0      13        0.0%
BITSFR12             0      0       0      13        0.0%
SFR12                0      0       0      13        0.0%
BANK4               50      0       0      14        0.0%
BITSFR13             0      0       0      14        0.0%
SFR13                0      0       0      14        0.0%
BITBANK5            50      0       0      15        0.0%
BITSFR14             0      0       0      15        0.0%
SFR14                0      0       0      15        0.0%
BANK5               50      0       0      16        0.0%
BITSFR15             0      0       0      16        0.0%
SFR15                0      0       0      16        0.0%
BITBANK6            50      0       0      17        0.0%
BITSFR16             0      0       0      17        0.0%
SFR16                0      0       0      17        0.0%
BANK6               50      0       0      18        0.0%
BITSFR17             0      0       0      18        0.0%
SFR17                0      0       0      18        0.0%
BITBANK7            50      0       0      19        0.0%
BITSFR18             0      0       0      19        0.0%
SFR18                0      0       0      19        0.0%
BANK7               50      0       0      20        0.0%
BITSFR19             0      0       0      20        0.0%
SFR19                0      0       0      20        0.0%
BITBANK8            50      0       0      21        0.0%
BITSFR20             0      0       0      21        0.0%
SFR20                0      0       0      21        0.0%
BANK8               50      0       0      22        0.0%
BITSFR21             0      0       0      22        0.0%
SFR21                0      0       0      22        0.0%
BITBANK9            50      0       0      23        0.0%
BITSFR22             0      0       0      23        0.0%
SFR22                0      0       0      23        0.0%
BANK9               50      0       0      24        0.0%
BITSFR23             0      0       0      24        0.0%
SFR23                0      0       0      24        0.0%
BITBANK10           50      0       0      25        0.0%
BITSFR24             0      0       0      25        0.0%
SFR24                0      0       0      25        0.0%
BANK10              50      0       0      26        0.0%
BITSFR25             0      0       0      26        0.0%
SFR25                0      0       0      26        0.0%
BITBANK11           50      0       0      27        0.0%
BITSFR26             0      0       0      27        0.0%
SFR26                0      0       0      27        0.0%
BANK11              50      0       0      28        0.0%
BITSFR27             0      0       0      28        0.0%
SFR27                0      0       0      28        0.0%
BITBANK12           50      0       0      29        0.0%
BITSFR28             0      0       0      29        0.0%
SFR28                0      0       0      29        0.0%
BANK12              50      0       0      30        0.0%
BITSFR29             0      0       0      30        0.0%
SFR29                0      0       0      30        0.0%
BITBANK13           50      0       0      31        0.0%
BITSFR30             0      0       0      31        0.0%
SFR30                0      0       0      31        0.0%
BANK13              50      0       0      32        0.0%
BITSFR31             0      0       0      32        0.0%
SFR31                0      0       0      32        0.0%
BITBANK14           50      0       0      33        0.0%
BITSFR32             0      0       0      33        0.0%
SFR32                0      0       0      33        0.0%
BANK14              50      0       0      34        0.0%
BITSFR33             0      0       0      34        0.0%
SFR33                0      0       0      34        0.0%
BITBANK15           50      0       0      35        0.0%
BITSFR34             0      0       0      35        0.0%
SFR34                0      0       0      35        0.0%
BANK15              50      0       0      36        0.0%
BITSFR35             0      0       0      36        0.0%
SFR35                0      0       0      36        0.0%
BITBANK16           50      0       0      37        0.0%
BITSFR36             0      0       0      37        0.0%
SFR36                0      0       0      37        0.0%
BANK16              50      0       0      38        0.0%
BITSFR37             0      0       0      38        0.0%
SFR37                0      0       0      38        0.0%
BITBANK17           50      0       0      39        0.0%
BITSFR38             0      0       0      39        0.0%
SFR38                0      0       0      39        0.0%
BANK17              50      0       0      40        0.0%
BITSFR39             0      0       0      40        0.0%
SFR39                0      0       0      40        0.0%
BITBANK18           50      0       0      41        0.0%
BITSFR40             0      0       0      41        0.0%
SFR40                0      0       0      41        0.0%
BANK18              50      0       0      42        0.0%
BITSFR41             0      0       0      42        0.0%
SFR41                0      0       0      42        0.0%
BITBANK19           50      0       0      43        0.0%
BITSFR42             0      0       0      43        0.0%
SFR42                0      0       0      43        0.0%
BANK19              50      0       0      44        0.0%
BITSFR43             0      0       0      44        0.0%
SFR43                0      0       0      44        0.0%
BITBANK20           50      0       0      45        0.0%
BITSFR44             0      0       0      45        0.0%
SFR44                0      0       0      45        0.0%
BANK20              50      0       0      46        0.0%
BITSFR45             0      0       0      46        0.0%
SFR45                0      0       0      46        0.0%
BITBANK21           50      0       0      47        0.0%
BITSFR46             0      0       0      47        0.0%
SFR46                0      0       0      47        0.0%
BANK21              50      0       0      48        0.0%
BITSFR47             0      0       0      48        0.0%
SFR47                0      0       0      48        0.0%
BITBANK22           50      0       0      49        0.0%
BITSFR48             0      0       0      49        0.0%
SFR48                0      0       0      49        0.0%
BANK22              50      0       0      50        0.0%
BITSFR49             0      0       0      50        0.0%
SFR49                0      0       0      50        0.0%
BITBANK23           50      0       0      51        0.0%
BITSFR50             0      0       0      51        0.0%
SFR50                0      0       0      51        0.0%
BANK23              50      0       0      52        0.0%
BITSFR51             0      0       0      52        0.0%
SFR51                0      0       0      52        0.0%
BITBANK24           50      0       0      53        0.0%
BITSFR52             0      0       0      53        0.0%
SFR52                0      0       0      53        0.0%
BANK24              50      0       0      54        0.0%
BITSFR53             0      0       0      54        0.0%
SFR53                0      0       0      54        0.0%
BITBANK25           20      0       0      55        0.0%
BITSFR54             0      0       0      55        0.0%
SFR54                0      0       0      55        0.0%
BANK25              20      0       0      56        0.0%
BITSFR55             0      0       0      56        0.0%
SFR55                0      0       0      56        0.0%
BITSFR56             0      0       0      57        0.0%
SFR56                0      0       0      57        0.0%
DATA                 0      0      B8      57        0.0%
BITSFR57             0      0       0      58        0.0%
SFR57                0      0       0      58        0.0%
BITSFR58             0      0       0      59        0.0%
SFR58                0      0       0      59        0.0%
BITSFR59             0      0       0      60        0.0%
SFR59                0      0       0      60        0.0%
BITSFR60             0      0       0      61        0.0%
SFR60                0      0       0      61        0.0%
BITSFR61             0      0       0      62        0.0%
SFR61                0      0       0      62        0.0%
BITSFR62             0      0       0      63        0.0%
SFR62                0      0       0      63        0.0%
BITSFR63             0      0       0      64        0.0%
SFR63                0      0       0      64        0.0%


Microchip Technology PIC Macro Assembler V2.41 build 20230208172133 
Symbol Table                                                                                   Wed Jan 17 21:49:53 2024

                                                 l17 0481                                                   l36 0477  
                                                 l53 048D                                                  l311 046C  
                                                l315 0460                                                  l171 0454  
                                                l236 0437                                                  l412 041A  
                                                l157 0344                                                  l360 0058  
                                                l417 02DD                                                  l419 02F7  
                                                l381 03B3                                                  l391 03D8  
                                                l383 03B5                                                  l375 00FE  
                                                l386 03C4                                                  l388 03D2  
                                                l397 037B                                                  u500 045B  
                                                u501 045A                                                  u510 0143  
                                                u511 0142                                                  u600 037A  
                                                u520 0167                                                  u601 0379  
                                                u521 0166                                                  u610 040B  
                                                u450 0253                                                  u530 0196  
                                                u611 040A                                                  u451 0252  
                                                u531 0195                                                  u620 0418  
                                                u700 0228                                                  u460 0259  
                                                u540 03FA                                                  u621 0417  
                                                u701 0227                                                  u461 0258  
                                                u541 03F9                                                  u550 034D  
                                                u470 0269                                                  u551 034C  
                                                u471 0268                                                  u560 0358  
                                                u640 02CF                                                  u480 0289  
                                                u800 0087                                                  u561 0357  
                                                u641 02CE                                                  u481 0288  
                                                u801 0086                                                  u490 0467  
                                                u570 0360                                                  u810 009D  
                                                u491 0466                                                  u571 035F  
                                                u635 02AE                                                  u811 009C  
                                                u580 0369                                                  u660 02F6  
                                                u820 00A6                                                  u581 0368  
                                                u661 02F5                                                  u485 0285  
                                                u821 00A5                                                  u590 0371  
                                                u670 01E2                                                  u654 02D6  
                                                u830 00F7                                                  u591 0370  
                                                u671 01E1                                                  u655 02D5  
                                                u831 00F6                                                  u680 01EC  
                                                u760 0066                                                  u681 01EB  
                                                u665 02F2                                                  u761 0065  
                                                u690 01F8                                                  u770 0071  
                                                u691 01F7                                                  u835 00F3  
                                                u771 0070                                                  u780 0077  
                                                u781 0076                                                  u790 0081  
                                                u791 0080                                                  u847 0041  
                                                u857 0052                                                  u867 03BB  
                                                u877 03C9                                                  u887 03D3  
                                                wreg 0009                                         _BAUD1CONbits 0612  
                                               l1102 03FC                                                 l1050 024C  
                                               l1114 02A9                                                 l1125 0491  
                                               l1062 0447                                                 l1095 01D9  
                                               l1601 0185                                                 l1603 0196  
                                               l1611 01AE                                                 l1605 019E  
                                               l1701 03FA                                                 l1631 047F  
                                               l1711 03C2                                                 l1607 01A9  
                                               l1633 0480                                                 l1625 0478  
                                               l1641 02FE                                                 l1705 0448  
                                               l1721 034D                                                 l1713 03D0  
                                               l1561 025E                                                 l1617 01B7  
                                               l1627 047C                                                 l1571 0488  
                                               l1635 046D                                                 l1651 0308  
                                               l1643 0300                                                 l1731 035A  
                                               l1715 03D6                                                 l1707 03B2  
                                               l1811 01EC                                                 l1803 01DB  
                                               l1563 0269                                                 l1555 024D  
                                               l1619 01D0                                                 l1629 047E  
                                               l1573 0461                                                 l1637 0470  
                                               l1661 031D                                                 l1653 030B  
                                               l1645 0302                                                 l1741 0369  
                                               l1725 034F                                                 l1717 0345  
                                               l1709 03B6                                                 l1813 01F8  
                                               l1805 01DD                                                 l1565 0289  
                                               l1557 0253                                                 l1581 0131  
                                               l1901 007D                                                 l1575 0467  
                                               l1671 0327                                                 l1663 031F  
                                               l1655 030D                                                 l1647 0304  
                                               l1639 02F8                                                 l1743 036B  
                                               l1751 0376                                                 l1719 0347  
                                               l1727 0353                                                 l1815 0202  
                                               l1823 021B                                                 l1831 0246  
                                               l1567 029F                                                 l1559 0259  
                                               l1591 015D                                                 l1583 0143  
                                               l1911 009D                                                 l1903 0081  
                                               l1577 0455                                                 l1681 0331  
                                               l1673 0329                                                 l1665 0321  
                                               l1657 030F                                                 l1649 0306  
                                               l1753 037A                                                 l1737 0361  
                                               l1729 0358                                                 l1825 0228  
                                               l1817 0218                                                 l1809 01E3  
                                               l1593 0167                                                 l1585 014B  
                                               l1913 00A6                                                 l1905 0087  
                                               l1579 045B                                                 l1691 0434  
                                               l1683 0334                                                 l1675 032B  
                                               l1667 0323                                                 l1659 0311  
                                               l1739 0365                                                 l1771 0412  
                                               l1763 03FF                                                 l1595 0175  
                                               l1587 0152                                                 l1915 00CD  
                                               l1907 0094                                                 l1685 041B  
                                               l1677 032D                                                 l1669 0325  
                                               l1749 0372                                                 l1773 0418  
                                               l1765 040B                                                 l1757 03FE  
                                               l1829 023F                                                 l1781 02B5  
                                               l1597 0182                                                 l1589 0156  
                                               l1693 03D9                                                 l1917 00F7  
                                               l1909 0097                                                 l1687 0426  
                                               l1679 032F                                                 l1791 02E4  
                                               l1783 02B6                                                 l1695 03DE  
                                               l1871 003B                                                 l1689 042D  
                                               l1769 040E                                                 l1793 02F6  
                                               l1785 02B9                                                 l1777 02AB  
                                               l1697 03E1                                                 l1881 0060  
                                               l1873 0047                                                 l1787 02C9  
                                               l1779 02B4                                                 l1699 03F1  
                                               l1891 0069                                                 l1883 0066  
                                               l1875 0049                                                 l1867 0036  
                                               l1789 02CF                                                 l1797 0438  
                                               l1893 006D                                                 l1877 004A  
                                               l1869 0039                                                 l1799 043B  
                                               l1895 0071                                                 l1879 004C  
                                               l1897 0077                                                 l1889 0067  
                                               l1899 0079                                                 STR_1 03AC  
                                               _LATA 0018                                                 _LATB 0019  
                                               _LATC 001A                                                 _LATD 001B  
                                               _LATE 001C                                                 i1l43 0012  
                                               _WPUA 1E8D                                                 _WPUB 1E97  
                                               _WPUC 1EA1                                                 _WPUD 1EAB  
                                               _WPUE 1EB5                                        _EUSART1_Write 0000  
                                        main@lowTick 0044                                                 _dbuf 0120  
                                               _free 01DA                                                 _main 0036  
                                               _prec 004B                                                 _nout 0047  
                                               fsr0h 0005                                                 fsr1h 0007  
                                               indf0 0000                                                 fsr0l 0004  
                                               indf1 0001                                                 fsr1l 0006  
                                               btemp 007E                          _INT_DefaultInterruptHandler 0000  
                                               start 0014                      __end_of_INT_SetInterruptHandler 048E  
                                       main@checkSum 003F                                         main@highTick 0045  
                                              ?_free 0070                                                ?_main 0070  
                                              _IOCAF 1E93                                                _IOCBF 1E9D  
                                              _IOCCF 1EA7                                                _IOCAN 1E92  
                                              _IOCEF 1EBB                                                _IOCAP 1E91  
                                              _IOCBN 1E9C                                                _IOCBP 1E9B  
                                              _IOCCN 1EA6                                                _IOCCP 1EA5  
                                              _IOCEN 1EBA                                                _IOCEP 1EB9  
                                              i1l160 0492                                                _OSCEN 0211  
                                              _UART1 037C                                         vfpfcnvrt@fmt 007B  
                                              u27_20 000B                                                u27_21 000A  
                                              u28_20 000F                                                u28_21 000E  
                                              _TRISA 0012                                                _TRISB 0013  
                                              _TRISC 0014                                                _TRISD 0015  
                                              _TRISE 0016                                     ??_parseDHT11Byte 0071  
       __end_of_EUSART1_FramingErrorCallbackRegister 046D               ??_EUSART1_FramingErrorCallbackRegister 0072  
              ?_EUSART1_FramingErrorCallbackRegister 0070                 _EUSART1_FramingErrorCallbackRegister 0461  
                                       main@humidity 0040                              __end_of_PIN_MANAGER_IOC 0493  
                                              _flags 0055                                                _fputc 024D  
                                              _width 0049                                                free@c 0076  
                                              _putch 0491                                                main@i 0046  
                              _EUSART1_AutoBaudQuery 0000                                                status 0003  
                                              wtemp0 007E                                      __initialization 0016  
                                       __end_of_free 024D                           __end_of_EUSART1_Initialize 0438  
                                       __end_of_main 0131                          ?_INTERRUPT_InterruptManager 0070  
                                             ??_free 0070                                               ??_main 0030  
EUSART1_OverrunErrorCallbackRegister@callbackHandler 0070  EUSART1_FramingErrorCallbackRegister@callbackHandler 0070  
                                             ?_fputc 0070                                               _ACTCON 0214  
                                             _ANSELA 1E8C                                               ?_putch 0070  
                                             _ANSELB 1E96                                               _ANSELC 1EA0  
                                             _ANSELD 1EAA                                               _ANSELE 1EB4  
                                             _RC1REG 060C                                               _RC1STA 0610  
                                             i1l1413 0006                                               i1l1415 000B  
                                             i1l1417 000F                                               _ODCONA 1E8E  
                                             _ODCONB 1E98                                               _ODCONC 1EA2  
                                             _RC6PPS 1DA2                                               _ODCOND 1EAC  
                                             _ODCONE 1EB6                                               _INLVLA 1E90  
                                             _INLVLB 1E9A                                               _INLVLC 1EA4  
                                             _INLVLD 1EAE                                               _INLVLE 1EB8  
                                             _OSCFRQ 0213                                               _RX1PPS 1E41  
                                             _TX1REG 060D                                               _TX1STA 0611  
                      __end_of_dht11ValidateResponse 041B                                         vfprintf@cfmt 002B  
                            parseDHT11Byte@byteArray 0079                                               _printf 0438  
                                  ?_CLOCK_Initialize 0070                                   _dht11CheckResponse 0345  
                                             fputc@c 0070                                   ??_CLOCK_Initialize 0070  
       __end_of_EUSART1_OverrunErrorCallbackRegister 0461               ??_EUSART1_OverrunErrorCallbackRegister 0072  
              ?_EUSART1_OverrunErrorCallbackRegister 0070                 _EUSART1_OverrunErrorCallbackRegister 0455  
                                             putch@c 0070                                  ?_dht11CheckResponse 0070  
                                   __end_of_vfprintf 03FD              INT_SetInterruptHandler@InterruptHandler 0070  
                                   ?_PIN_MANAGER_IOC 0070                                    _SYSTEM_Initialize 0448  
                            __end_of__initialization 0032                                   ?_SYSTEM_Initialize 0070  
                                         ___freelist 0056                                        __end_of_UART1 03AC  
                                         _dht11Start 03B2                                       __pcstackCOMMON 0070  
                               ??_dht11CheckResponse 0070                                         __pidataBANK0 048E  
                                ??_SYSTEM_Initialize 0072                                        __end_of_fputc 02AA  
                                      __end_of_putch 0492                                              ??_fputc 0074  
                          __end_of_SYSTEM_Initialize 0455                                              ??_putch 0070  
                                         __pbssBANK0 0047                                           __pbssBANK2 0120  
                                         __pmaintext 0036                                           __pintentry 0004  
                                   _EUSART1_IsTxDone 0000                                              ?_printf 002D  
                                   _EUSART1_ErrorGet 0000                               dht11CheckResponse@tick 0071  
                                            _SP1BRGH 060F                                              _SP1BRGL 060E  
                                            _OSCCON2 020E                                              _OSCCON3 020F  
                                            _OSCSTAT 0210                                              _OSCTUNE 0212  
                                            _TIMEOUT 0059                                              _SLRCONA 1E8F  
                                            _SLRCONB 1E99                                              _SLRCONC 1EA3  
                                            _SLRCOND 1EAD                                              _SLRCONE 1EB7  
                               _EUSART1_Deinitialize 0000                               _EUSART1_TransmitEnable 0000  
                                        ?_dht11Start 0070                                 parseDHT11Byte@result 0078  
                                          ?_vfprintf 0026                                              __ptext1 0438  
                                            __ptext2 03D9                                              __ptext3 0131  
                                            __ptext4 024D                                              __ptext5 0491  
                                            __ptext6 02AA                                              __ptext7 01DA  
                                            __ptext8 03FD                                              __ptext9 03B2  
                             dht11ValidateResponse@i 0072                                   _EUSART1_Initialize 041B  
                           ??_PIN_MANAGER_Initialize 0070                              _INT_SetInterruptHandler 0488  
                                            free@ptr 0075                                              clrloop0 0483  
                               end_of_initialization 0032                                  ?_EUSART1_Initialize 0070  
                                            fputc@fp 0072                          _EUSART1_OverrunErrorHandler 004D  
                                  __end_of_vfpfcnvrt 01DA                                           ??_vfprintf 007D  
                               ??_EUSART1_Initialize 0072                                            _PORTBbits 000D  
                                          _TRISBbits 0013                                         _EUSART1_Read 0000  
                                         main@status 003E                                _dht11ValidateResponse 03FD  
                       __end_of_INTERRUPT_Initialize 0478                                          vfpfcnvrt@ap 007C  
                                        vfpfcnvrt@cp 0024                                          vfpfcnvrt@fp 0079  
                          ??_INT_SetInterruptHandler 0072                                       __end_of_printf 0448  
                                start_initialization 0016                                          _DHT11_ERROR 0058  
                                 parseDHT11Byte@_bit 0075                                   parseDHT11Byte@high 0074  
                                 parseDHT11Byte@byte 0070                                          vfprintf@fmt 0028  
                                        __pdataBANK0 0057                                             ??_printf 007E  
                                          ___latbits 0003                                        __pcstackBANK0 0020  
                                      __pcstackBANK1 00A0                               parseDHT11Byte@startPos 0077  
                             _PIN_MANAGER_Initialize 02F8                               ?_dht11ValidateResponse 0070  
                                       ??_dht11Start 0070                         ??_INTERRUPT_InterruptManager 0070  
                                           _BAUD1CON 0612                                    _EUSART1_IsRxReady 0000  
                                           _DHT11_OK 0057                                    _EUSART1_IsTxReady 0000  
                                 __end_of_dht11Start 03D9                                 _INTERRUPT_Initialize 046D  
                                   _CLOCK_Initialize 0478                                       _parseDHT11Byte 02AA  
                                           _LATBbits 0019                                            clear_ram0 0482  
                                           _PIE0bits 0096                                             _PIR0bits 008C  
                                           _PIR3bits 008F                                    ??_PIN_MANAGER_IOC 0070  
                                          _vfpfcnvrt 0131                                             _WPUBbits 1E97  
                              ?_INTERRUPT_Initialize 0070                               __end_of_parseDHT11Byte 02F8  
                                _EUSART1_AutoBaudSet 0000                              _EUSART1_TransmitDisable 0000  
                                  parseDHT11Byte@idx 0076                                           vfprintf@ap 002A  
                                         vfprintf@fp 0026                                    parseDHT11Byte@low 0073  
                                         ?_vfpfcnvrt 0079                  _EUSART1_DefaultFramingErrorCallback 0000  
                                           __ptext10 0345                                             __ptext11 0448  
                                           __ptext20 0492                                             __ptext12 02F8  
                                           __ptext13 046D                                             __ptext14 0488  
                                           __ptext15 041B                                             __ptext16 0455  
                                           __ptext17 0461                                             __ptext18 0478  
                                main@humidityDecimal 0041                                      ?_parseDHT11Byte 0070  
                                    main@tempDecimal 0043                                           _RC1STAbits 0610  
                                           int$flags 007E                                             _vfprintf 03D9  
                                           free@cptr 0074                   __end_of_INTERRUPT_InterruptManager 0014  
                         _INTERRUPT_InterruptManager 0004                                             main@data 00A0  
                                          printf@fmt 002D                                             main@temp 0042  
                        _EUSART1_FramingErrorHandler 004F                                           _INTCONbits 000B  
                               _INT_InterruptHandler 0053                               ??_INTERRUPT_Initialize 0072  
                                           intlevel1 0000                       dht11ValidateResponse@byteArray 0071  
                            ?_PIN_MANAGER_Initialize 0070                              ??_dht11ValidateResponse 0070  
                         __end_of_dht11CheckResponse 037C                                             printf@ap 002F  
                           ?_INT_SetInterruptHandler 0070                                          ??_vfpfcnvrt 0020  
                                    parseDHT11Byte@i 007A                                   _eusart1RxLastError 0051  
                           __end_of_CLOCK_Initialize 0482                                        __pstringtext1 037C  
                                      __pstringtext2 0000                  _EUSART1_DefaultOverrunErrorCallback 0000  
                                         _TX1STAbits 0611                       __end_of_PIN_MANAGER_Initialize 0345  
                                    _PIN_MANAGER_IOC 0492  
